
bmptool:     file format elf32-i386


Disassembly of section .init:

0804891c <_init>:
 804891c:	55                   	push   ebp
 804891d:	89 e5                	mov    ebp,esp
 804891f:	53                   	push   ebx
 8048920:	83 ec 04             	sub    esp,0x4
 8048923:	e8 00 00 00 00       	call   8048928 <_init+0xc>
 8048928:	5b                   	pop    ebx
 8048929:	81 c3 70 81 00 00    	add    ebx,0x8170
 804892f:	8b 93 fc ff ff ff    	mov    edx,DWORD PTR [ebx-0x4]
 8048935:	85 d2                	test   edx,edx
 8048937:	74 05                	je     804893e <_init+0x22>
 8048939:	e8 d2 00 00 00       	call   8048a10 <__gmon_start__@plt>
 804893e:	58                   	pop    eax
 804893f:	5b                   	pop    ebx
 8048940:	c9                   	leave  
 8048941:	c3                   	ret    

Disassembly of section .plt:

08048950 <strcmp@plt-0x10>:
 8048950:	ff 35 9c 0a 05 08    	push   DWORD PTR ds:0x8050a9c
 8048956:	ff 25 a0 0a 05 08    	jmp    DWORD PTR ds:0x8050aa0
 804895c:	00 00                	add    BYTE PTR [eax],al
	...

08048960 <strcmp@plt>:
 8048960:	ff 25 a4 0a 05 08    	jmp    DWORD PTR ds:0x8050aa4
 8048966:	68 00 00 00 00       	push   0x0
 804896b:	e9 e0 ff ff ff       	jmp    8048950 <_init+0x34>

08048970 <read@plt>:
 8048970:	ff 25 a8 0a 05 08    	jmp    DWORD PTR ds:0x8050aa8
 8048976:	68 08 00 00 00       	push   0x8
 804897b:	e9 d0 ff ff ff       	jmp    8048950 <_init+0x34>

08048980 <printf@plt>:
 8048980:	ff 25 ac 0a 05 08    	jmp    DWORD PTR ds:0x8050aac
 8048986:	68 10 00 00 00       	push   0x10
 804898b:	e9 c0 ff ff ff       	jmp    8048950 <_init+0x34>

08048990 <memcpy@plt>:
 8048990:	ff 25 b0 0a 05 08    	jmp    DWORD PTR ds:0x8050ab0
 8048996:	68 18 00 00 00       	push   0x18
 804899b:	e9 b0 ff ff ff       	jmp    8048950 <_init+0x34>

080489a0 <time@plt>:
 80489a0:	ff 25 b4 0a 05 08    	jmp    DWORD PTR ds:0x8050ab4
 80489a6:	68 20 00 00 00       	push   0x20
 80489ab:	e9 a0 ff ff ff       	jmp    8048950 <_init+0x34>

080489b0 <lseek@plt>:
 80489b0:	ff 25 b8 0a 05 08    	jmp    DWORD PTR ds:0x8050ab8
 80489b6:	68 28 00 00 00       	push   0x28
 80489bb:	e9 90 ff ff ff       	jmp    8048950 <_init+0x34>

080489c0 <sysconf@plt>:
 80489c0:	ff 25 bc 0a 05 08    	jmp    DWORD PTR ds:0x8050abc
 80489c6:	68 30 00 00 00       	push   0x30
 80489cb:	e9 80 ff ff ff       	jmp    8048950 <_init+0x34>

080489d0 <perror@plt>:
 80489d0:	ff 25 c0 0a 05 08    	jmp    DWORD PTR ds:0x8050ac0
 80489d6:	68 38 00 00 00       	push   0x38
 80489db:	e9 70 ff ff ff       	jmp    8048950 <_init+0x34>

080489e0 <fwrite@plt>:
 80489e0:	ff 25 c4 0a 05 08    	jmp    DWORD PTR ds:0x8050ac4
 80489e6:	68 40 00 00 00       	push   0x40
 80489eb:	e9 60 ff ff ff       	jmp    8048950 <_init+0x34>

080489f0 <strcpy@plt>:
 80489f0:	ff 25 c8 0a 05 08    	jmp    DWORD PTR ds:0x8050ac8
 80489f6:	68 48 00 00 00       	push   0x48
 80489fb:	e9 50 ff ff ff       	jmp    8048950 <_init+0x34>

08048a00 <puts@plt>:
 8048a00:	ff 25 cc 0a 05 08    	jmp    DWORD PTR ds:0x8050acc
 8048a06:	68 50 00 00 00       	push   0x50
 8048a0b:	e9 40 ff ff ff       	jmp    8048950 <_init+0x34>

08048a10 <__gmon_start__@plt>:
 8048a10:	ff 25 d0 0a 05 08    	jmp    DWORD PTR ds:0x8050ad0
 8048a16:	68 58 00 00 00       	push   0x58
 8048a1b:	e9 30 ff ff ff       	jmp    8048950 <_init+0x34>

08048a20 <open@plt>:
 8048a20:	ff 25 d4 0a 05 08    	jmp    DWORD PTR ds:0x8050ad4
 8048a26:	68 60 00 00 00       	push   0x60
 8048a2b:	e9 20 ff ff ff       	jmp    8048950 <_init+0x34>

08048a30 <mmap@plt>:
 8048a30:	ff 25 d8 0a 05 08    	jmp    DWORD PTR ds:0x8050ad8
 8048a36:	68 68 00 00 00       	push   0x68
 8048a3b:	e9 10 ff ff ff       	jmp    8048950 <_init+0x34>

08048a40 <strchr@plt>:
 8048a40:	ff 25 dc 0a 05 08    	jmp    DWORD PTR ds:0x8050adc
 8048a46:	68 70 00 00 00       	push   0x70
 8048a4b:	e9 00 ff ff ff       	jmp    8048950 <_init+0x34>

08048a50 <strlen@plt>:
 8048a50:	ff 25 e0 0a 05 08    	jmp    DWORD PTR ds:0x8050ae0
 8048a56:	68 78 00 00 00       	push   0x78
 8048a5b:	e9 f0 fe ff ff       	jmp    8048950 <_init+0x34>

08048a60 <__libc_start_main@plt>:
 8048a60:	ff 25 e4 0a 05 08    	jmp    DWORD PTR ds:0x8050ae4
 8048a66:	68 80 00 00 00       	push   0x80
 8048a6b:	e9 e0 fe ff ff       	jmp    8048950 <_init+0x34>

08048a70 <fprintf@plt>:
 8048a70:	ff 25 e8 0a 05 08    	jmp    DWORD PTR ds:0x8050ae8
 8048a76:	68 88 00 00 00       	push   0x88
 8048a7b:	e9 d0 fe ff ff       	jmp    8048950 <_init+0x34>

08048a80 <write@plt>:
 8048a80:	ff 25 ec 0a 05 08    	jmp    DWORD PTR ds:0x8050aec
 8048a86:	68 90 00 00 00       	push   0x90
 8048a8b:	e9 c0 fe ff ff       	jmp    8048950 <_init+0x34>

08048a90 <strcasecmp@plt>:
 8048a90:	ff 25 f0 0a 05 08    	jmp    DWORD PTR ds:0x8050af0
 8048a96:	68 98 00 00 00       	push   0x98
 8048a9b:	e9 b0 fe ff ff       	jmp    8048950 <_init+0x34>

08048aa0 <memset@plt>:
 8048aa0:	ff 25 f4 0a 05 08    	jmp    DWORD PTR ds:0x8050af4
 8048aa6:	68 a0 00 00 00       	push   0xa0
 8048aab:	e9 a0 fe ff ff       	jmp    8048950 <_init+0x34>

08048ab0 <putchar@plt>:
 8048ab0:	ff 25 f8 0a 05 08    	jmp    DWORD PTR ds:0x8050af8
 8048ab6:	68 a8 00 00 00       	push   0xa8
 8048abb:	e9 90 fe ff ff       	jmp    8048950 <_init+0x34>

08048ac0 <__errno_location@plt>:
 8048ac0:	ff 25 fc 0a 05 08    	jmp    DWORD PTR ds:0x8050afc
 8048ac6:	68 b0 00 00 00       	push   0xb0
 8048acb:	e9 80 fe ff ff       	jmp    8048950 <_init+0x34>

08048ad0 <munmap@plt>:
 8048ad0:	ff 25 00 0b 05 08    	jmp    DWORD PTR ds:0x8050b00
 8048ad6:	68 b8 00 00 00       	push   0xb8
 8048adb:	e9 70 fe ff ff       	jmp    8048950 <_init+0x34>

08048ae0 <strrchr@plt>:
 8048ae0:	ff 25 04 0b 05 08    	jmp    DWORD PTR ds:0x8050b04
 8048ae6:	68 c0 00 00 00       	push   0xc0
 8048aeb:	e9 60 fe ff ff       	jmp    8048950 <_init+0x34>

08048af0 <sprintf@plt>:
 8048af0:	ff 25 08 0b 05 08    	jmp    DWORD PTR ds:0x8050b08
 8048af6:	68 c8 00 00 00       	push   0xc8
 8048afb:	e9 50 fe ff ff       	jmp    8048950 <_init+0x34>

08048b00 <atoi@plt>:
 8048b00:	ff 25 0c 0b 05 08    	jmp    DWORD PTR ds:0x8050b0c
 8048b06:	68 d0 00 00 00       	push   0xd0
 8048b0b:	e9 40 fe ff ff       	jmp    8048950 <_init+0x34>

08048b10 <sbrk@plt>:
 8048b10:	ff 25 10 0b 05 08    	jmp    DWORD PTR ds:0x8050b10
 8048b16:	68 d8 00 00 00       	push   0xd8
 8048b1b:	e9 30 fe ff ff       	jmp    8048950 <_init+0x34>

08048b20 <abort@plt>:
 8048b20:	ff 25 14 0b 05 08    	jmp    DWORD PTR ds:0x8050b14
 8048b26:	68 e0 00 00 00       	push   0xe0
 8048b2b:	e9 20 fe ff ff       	jmp    8048950 <_init+0x34>

08048b30 <mremap@plt>:
 8048b30:	ff 25 18 0b 05 08    	jmp    DWORD PTR ds:0x8050b18
 8048b36:	68 e8 00 00 00       	push   0xe8
 8048b3b:	e9 10 fe ff ff       	jmp    8048950 <_init+0x34>

08048b40 <close@plt>:
 8048b40:	ff 25 1c 0b 05 08    	jmp    DWORD PTR ds:0x8050b1c
 8048b46:	68 f0 00 00 00       	push   0xf0
 8048b4b:	e9 00 fe ff ff       	jmp    8048950 <_init+0x34>

Disassembly of section .text:

08048b50 <_start>:
 8048b50:	31 ed                	xor    ebp,ebp
 8048b52:	5e                   	pop    esi
 8048b53:	89 e1                	mov    ecx,esp
 8048b55:	83 e4 f0             	and    esp,0xfffffff0
 8048b58:	50                   	push   eax
 8048b59:	54                   	push   esp
 8048b5a:	52                   	push   edx
 8048b5b:	68 c0 e0 04 08       	push   0x804e0c0
 8048b60:	68 d0 e0 04 08       	push   0x804e0d0
 8048b65:	51                   	push   ecx
 8048b66:	56                   	push   esi
 8048b67:	68 60 8c 04 08       	push   0x8048c60
 8048b6c:	e8 ef fe ff ff       	call   8048a60 <__libc_start_main@plt>
 8048b71:	f4                   	hlt    
 8048b72:	90                   	nop
 8048b73:	90                   	nop
 8048b74:	90                   	nop
 8048b75:	90                   	nop
 8048b76:	90                   	nop
 8048b77:	90                   	nop
 8048b78:	90                   	nop
 8048b79:	90                   	nop
 8048b7a:	90                   	nop
 8048b7b:	90                   	nop
 8048b7c:	90                   	nop
 8048b7d:	90                   	nop
 8048b7e:	90                   	nop
 8048b7f:	90                   	nop

08048b80 <deregister_tm_clones>:
 8048b80:	b8 2f 0b 05 08       	mov    eax,0x8050b2f
 8048b85:	2d 2c 0b 05 08       	sub    eax,0x8050b2c
 8048b8a:	83 f8 06             	cmp    eax,0x6
 8048b8d:	77 02                	ja     8048b91 <deregister_tm_clones+0x11>
 8048b8f:	f3 c3                	repz ret 
 8048b91:	b8 00 00 00 00       	mov    eax,0x0
 8048b96:	85 c0                	test   eax,eax
 8048b98:	74 f5                	je     8048b8f <deregister_tm_clones+0xf>
 8048b9a:	55                   	push   ebp
 8048b9b:	89 e5                	mov    ebp,esp
 8048b9d:	83 ec 18             	sub    esp,0x18
 8048ba0:	c7 04 24 2c 0b 05 08 	mov    DWORD PTR [esp],0x8050b2c
 8048ba7:	ff d0                	call   eax
 8048ba9:	c9                   	leave  
 8048baa:	c3                   	ret    
 8048bab:	90                   	nop
 8048bac:	8d 74 26 00          	lea    esi,[esi+eiz*1+0x0]

08048bb0 <register_tm_clones>:
 8048bb0:	b8 2c 0b 05 08       	mov    eax,0x8050b2c
 8048bb5:	2d 2c 0b 05 08       	sub    eax,0x8050b2c
 8048bba:	c1 f8 02             	sar    eax,0x2
 8048bbd:	89 c2                	mov    edx,eax
 8048bbf:	c1 ea 1f             	shr    edx,0x1f
 8048bc2:	01 d0                	add    eax,edx
 8048bc4:	d1 f8                	sar    eax,1
 8048bc6:	75 02                	jne    8048bca <register_tm_clones+0x1a>
 8048bc8:	f3 c3                	repz ret 
 8048bca:	ba 00 00 00 00       	mov    edx,0x0
 8048bcf:	85 d2                	test   edx,edx
 8048bd1:	74 f5                	je     8048bc8 <register_tm_clones+0x18>
 8048bd3:	55                   	push   ebp
 8048bd4:	89 e5                	mov    ebp,esp
 8048bd6:	83 ec 18             	sub    esp,0x18
 8048bd9:	89 44 24 04          	mov    DWORD PTR [esp+0x4],eax
 8048bdd:	c7 04 24 2c 0b 05 08 	mov    DWORD PTR [esp],0x8050b2c
 8048be4:	ff d2                	call   edx
 8048be6:	c9                   	leave  
 8048be7:	c3                   	ret    
 8048be8:	90                   	nop
 8048be9:	8d b4 26 00 00 00 00 	lea    esi,[esi+eiz*1+0x0]

08048bf0 <__do_global_dtors_aux>:
 8048bf0:	80 3d 44 0b 05 08 00 	cmp    BYTE PTR ds:0x8050b44,0x0
 8048bf7:	75 13                	jne    8048c0c <__do_global_dtors_aux+0x1c>
 8048bf9:	55                   	push   ebp
 8048bfa:	89 e5                	mov    ebp,esp
 8048bfc:	83 ec 08             	sub    esp,0x8
 8048bff:	e8 7c ff ff ff       	call   8048b80 <deregister_tm_clones>
 8048c04:	c6 05 44 0b 05 08 01 	mov    BYTE PTR ds:0x8050b44,0x1
 8048c0b:	c9                   	leave  
 8048c0c:	f3 c3                	repz ret 
 8048c0e:	66 90                	xchg   ax,ax

08048c10 <frame_dummy>:
 8048c10:	a1 a0 09 05 08       	mov    eax,ds:0x80509a0
 8048c15:	85 c0                	test   eax,eax
 8048c17:	74 1e                	je     8048c37 <frame_dummy+0x27>
 8048c19:	b8 00 00 00 00       	mov    eax,0x0
 8048c1e:	85 c0                	test   eax,eax
 8048c20:	74 15                	je     8048c37 <frame_dummy+0x27>
 8048c22:	55                   	push   ebp
 8048c23:	89 e5                	mov    ebp,esp
 8048c25:	83 ec 18             	sub    esp,0x18
 8048c28:	c7 04 24 a0 09 05 08 	mov    DWORD PTR [esp],0x80509a0
 8048c2f:	ff d0                	call   eax
 8048c31:	c9                   	leave  
 8048c32:	e9 79 ff ff ff       	jmp    8048bb0 <register_tm_clones>
 8048c37:	e9 74 ff ff ff       	jmp    8048bb0 <register_tm_clones>

08048c3c <err_func>:
 8048c3c:	55                   	push   ebp
 8048c3d:	89 e5                	mov    ebp,esp
 8048c3f:	83 ec 18             	sub    esp,0x18
 8048c42:	a1 40 0b 05 08       	mov    eax,ds:0x8050b40
 8048c47:	8b 55 08             	mov    edx,DWORD PTR [ebp+0x8]
 8048c4a:	89 54 24 08          	mov    DWORD PTR [esp+0x8],edx
 8048c4e:	c7 44 24 04 10 e2 04 	mov    DWORD PTR [esp+0x4],0x804e210
 8048c55:	08 
 8048c56:	89 04 24             	mov    DWORD PTR [esp],eax
 8048c59:	e8 12 fe ff ff       	call   8048a70 <fprintf@plt>
 8048c5e:	c9                   	leave  
 8048c5f:	c3                   	ret    

08048c60 <main>:
 8048c60:	55                   	push   ebp
 8048c61:	89 e5                	mov    ebp,esp
 8048c63:	83 e4 f0             	and    esp,0xfffffff0
 8048c66:	83 ec 20             	sub    esp,0x20
 8048c69:	83 7d 08 01          	cmp    DWORD PTR [ebp+0x8],0x1
 8048c6d:	7f 28                	jg     8048c97 <main+0x37>
 8048c6f:	8b 45 0c             	mov    eax,DWORD PTR [ebp+0xc]
 8048c72:	8b 10                	mov    edx,DWORD PTR [eax]
 8048c74:	a1 40 0b 05 08       	mov    eax,ds:0x8050b40
 8048c79:	89 54 24 08          	mov    DWORD PTR [esp+0x8],edx
 8048c7d:	c7 44 24 04 1c e2 04 	mov    DWORD PTR [esp+0x4],0x804e21c
 8048c84:	08 
 8048c85:	89 04 24             	mov    DWORD PTR [esp],eax
 8048c88:	e8 e3 fd ff ff       	call   8048a70 <fprintf@plt>
 8048c8d:	b8 01 00 00 00       	mov    eax,0x1
 8048c92:	e9 e5 00 00 00       	jmp    8048d7c <main+0x11c>
 8048c97:	c7 44 24 1c 01 00 00 	mov    DWORD PTR [esp+0x1c],0x1
 8048c9e:	00 
 8048c9f:	e9 a9 00 00 00       	jmp    8048d4d <main+0xed>
 8048ca4:	8b 44 24 1c          	mov    eax,DWORD PTR [esp+0x1c]
 8048ca8:	8d 14 85 00 00 00 00 	lea    edx,[eax*4+0x0]
 8048caf:	8b 45 0c             	mov    eax,DWORD PTR [ebp+0xc]
 8048cb2:	01 d0                	add    eax,edx
 8048cb4:	8b 00                	mov    eax,DWORD PTR [eax]
 8048cb6:	0f b6 00             	movzx  eax,BYTE PTR [eax]
 8048cb9:	3c 2d                	cmp    al,0x2d
 8048cbb:	0f 85 86 00 00 00    	jne    8048d47 <main+0xe7>
 8048cc1:	c7 44 24 18 00 00 00 	mov    DWORD PTR [esp+0x18],0x0
 8048cc8:	00 
 8048cc9:	eb 6b                	jmp    8048d36 <main+0xd6>
 8048ccb:	8b 44 24 18          	mov    eax,DWORD PTR [esp+0x18]
 8048ccf:	8b 04 c5 c0 e1 04 08 	mov    eax,DWORD PTR [eax*8+0x804e1c0]
 8048cd6:	8b 54 24 1c          	mov    edx,DWORD PTR [esp+0x1c]
 8048cda:	8d 0c 95 00 00 00 00 	lea    ecx,[edx*4+0x0]
 8048ce1:	8b 55 0c             	mov    edx,DWORD PTR [ebp+0xc]
 8048ce4:	01 ca                	add    edx,ecx
 8048ce6:	8b 12                	mov    edx,DWORD PTR [edx]
 8048ce8:	83 c2 01             	add    edx,0x1
 8048ceb:	89 44 24 04          	mov    DWORD PTR [esp+0x4],eax
 8048cef:	89 14 24             	mov    DWORD PTR [esp],edx
 8048cf2:	e8 69 fc ff ff       	call   8048960 <strcmp@plt>
 8048cf7:	85 c0                	test   eax,eax
 8048cf9:	75 36                	jne    8048d31 <main+0xd1>
 8048cfb:	8b 44 24 18          	mov    eax,DWORD PTR [esp+0x18]
 8048cff:	8b 04 c5 c4 e1 04 08 	mov    eax,DWORD PTR [eax*8+0x804e1c4]
 8048d06:	8b 54 24 1c          	mov    edx,DWORD PTR [esp+0x1c]
 8048d0a:	83 c2 01             	add    edx,0x1
 8048d0d:	8d 0c 95 00 00 00 00 	lea    ecx,[edx*4+0x0]
 8048d14:	8b 55 0c             	mov    edx,DWORD PTR [ebp+0xc]
 8048d17:	01 ca                	add    edx,ecx
 8048d19:	89 54 24 04          	mov    DWORD PTR [esp+0x4],edx
 8048d1d:	c7 04 24 d4 0d 05 08 	mov    DWORD PTR [esp],0x8050dd4
 8048d24:	ff d0                	call   eax
 8048d26:	85 c0                	test   eax,eax
 8048d28:	74 07                	je     8048d31 <main+0xd1>
 8048d2a:	b8 01 00 00 00       	mov    eax,0x1
 8048d2f:	eb 4b                	jmp    8048d7c <main+0x11c>
 8048d31:	83 44 24 18 01       	add    DWORD PTR [esp+0x18],0x1
 8048d36:	8b 44 24 18          	mov    eax,DWORD PTR [esp+0x18]
 8048d3a:	8b 04 c5 c0 e1 04 08 	mov    eax,DWORD PTR [eax*8+0x804e1c0]
 8048d41:	85 c0                	test   eax,eax
 8048d43:	75 86                	jne    8048ccb <main+0x6b>
 8048d45:	eb 01                	jmp    8048d48 <main+0xe8>
 8048d47:	90                   	nop
 8048d48:	83 44 24 1c 01       	add    DWORD PTR [esp+0x1c],0x1
 8048d4d:	8b 44 24 1c          	mov    eax,DWORD PTR [esp+0x1c]
 8048d51:	3b 45 08             	cmp    eax,DWORD PTR [ebp+0x8]
 8048d54:	0f 8c 4a ff ff ff    	jl     8048ca4 <main+0x44>
 8048d5a:	a1 d4 0d 05 08       	mov    eax,ds:0x8050dd4
 8048d5f:	8b 40 08             	mov    eax,DWORD PTR [eax+0x8]
 8048d62:	89 04 24             	mov    DWORD PTR [esp],eax
 8048d65:	e8 f8 46 00 00       	call   804d462 <free>
 8048d6a:	a1 d4 0d 05 08       	mov    eax,ds:0x8050dd4
 8048d6f:	89 04 24             	mov    DWORD PTR [esp],eax
 8048d72:	e8 eb 46 00 00       	call   804d462 <free>
 8048d77:	b8 00 00 00 00       	mov    eax,0x0
 8048d7c:	c9                   	leave  
 8048d7d:	c3                   	ret    
 8048d7e:	90                   	nop
 8048d7f:	90                   	nop

08048d80 <parse_v3>:
 8048d80:	55                   	push   ebp
 8048d81:	89 e5                	mov    ebp,esp
 8048d83:	53                   	push   ebx
 8048d84:	83 ec 34             	sub    esp,0x34
 8048d87:	8b 45 0c             	mov    eax,DWORD PTR [ebp+0xc]
 8048d8a:	89 45 ec             	mov    DWORD PTR [ebp-0x14],eax
 8048d8d:	8b 45 0c             	mov    eax,DWORD PTR [ebp+0xc]
 8048d90:	83 c0 0e             	add    eax,0xe
 8048d93:	89 45 e8             	mov    DWORD PTR [ebp-0x18],eax
 8048d96:	8b 45 e8             	mov    eax,DWORD PTR [ebp-0x18]
 8048d99:	0f b7 40 0c          	movzx  eax,WORD PTR [eax+0xc]
 8048d9d:	66 83 f8 01          	cmp    ax,0x1
 8048da1:	74 18                	je     8048dbb <parse_v3+0x3b>
 8048da3:	a1 28 0b 05 08       	mov    eax,ds:0x8050b28
 8048da8:	c7 04 24 58 e2 04 08 	mov    DWORD PTR [esp],0x804e258
 8048daf:	ff d0                	call   eax
 8048db1:	b8 ff ff ff ff       	mov    eax,0xffffffff
 8048db6:	e9 13 02 00 00       	jmp    8048fce <parse_v3+0x24e>
 8048dbb:	8b 45 e8             	mov    eax,DWORD PTR [ebp-0x18]
 8048dbe:	0f b7 40 0e          	movzx  eax,WORD PTR [eax+0xe]
 8048dc2:	66 83 f8 18          	cmp    ax,0x18
 8048dc6:	74 18                	je     8048de0 <parse_v3+0x60>
 8048dc8:	a1 28 0b 05 08       	mov    eax,ds:0x8050b28
 8048dcd:	c7 04 24 78 e2 04 08 	mov    DWORD PTR [esp],0x804e278
 8048dd4:	ff d0                	call   eax
 8048dd6:	b8 ff ff ff ff       	mov    eax,0xffffffff
 8048ddb:	e9 ee 01 00 00       	jmp    8048fce <parse_v3+0x24e>
 8048de0:	8b 45 e8             	mov    eax,DWORD PTR [ebp-0x18]
 8048de3:	8b 40 10             	mov    eax,DWORD PTR [eax+0x10]
 8048de6:	85 c0                	test   eax,eax
 8048de8:	74 18                	je     8048e02 <parse_v3+0x82>
 8048dea:	a1 28 0b 05 08       	mov    eax,ds:0x8050b28
 8048def:	c7 04 24 a0 e2 04 08 	mov    DWORD PTR [esp],0x804e2a0
 8048df6:	ff d0                	call   eax
 8048df8:	b8 ff ff ff ff       	mov    eax,0xffffffff
 8048dfd:	e9 cc 01 00 00       	jmp    8048fce <parse_v3+0x24e>
 8048e02:	8b 45 e8             	mov    eax,DWORD PTR [ebp-0x18]
 8048e05:	8b 40 20             	mov    eax,DWORD PTR [eax+0x20]
 8048e08:	85 c0                	test   eax,eax
 8048e0a:	74 18                	je     8048e24 <parse_v3+0xa4>
 8048e0c:	a1 28 0b 05 08       	mov    eax,ds:0x8050b28
 8048e11:	c7 04 24 c0 e2 04 08 	mov    DWORD PTR [esp],0x804e2c0
 8048e18:	ff d0                	call   eax
 8048e1a:	b8 ff ff ff ff       	mov    eax,0xffffffff
 8048e1f:	e9 aa 01 00 00       	jmp    8048fce <parse_v3+0x24e>
 8048e24:	8b 45 08             	mov    eax,DWORD PTR [ebp+0x8]
 8048e27:	8b 00                	mov    eax,DWORD PTR [eax]
 8048e29:	8b 55 e8             	mov    edx,DWORD PTR [ebp-0x18]
 8048e2c:	8b 52 04             	mov    edx,DWORD PTR [edx+0x4]
 8048e2f:	89 10                	mov    DWORD PTR [eax],edx
 8048e31:	8b 45 08             	mov    eax,DWORD PTR [ebp+0x8]
 8048e34:	8b 00                	mov    eax,DWORD PTR [eax]
 8048e36:	8b 55 e8             	mov    edx,DWORD PTR [ebp-0x18]
 8048e39:	8b 52 08             	mov    edx,DWORD PTR [edx+0x8]
 8048e3c:	89 50 04             	mov    DWORD PTR [eax+0x4],edx
 8048e3f:	8b 45 08             	mov    eax,DWORD PTR [ebp+0x8]
 8048e42:	8b 00                	mov    eax,DWORD PTR [eax]
 8048e44:	8b 10                	mov    edx,DWORD PTR [eax]
 8048e46:	8b 45 08             	mov    eax,DWORD PTR [ebp+0x8]
 8048e49:	8b 00                	mov    eax,DWORD PTR [eax]
 8048e4b:	8b 40 04             	mov    eax,DWORD PTR [eax+0x4]
 8048e4e:	0f af c2             	imul   eax,edx
 8048e51:	3d 00 00 10 00       	cmp    eax,0x100000
 8048e56:	76 18                	jbe    8048e70 <parse_v3+0xf0>
 8048e58:	a1 28 0b 05 08       	mov    eax,ds:0x8050b28
 8048e5d:	c7 04 24 e6 e2 04 08 	mov    DWORD PTR [esp],0x804e2e6
 8048e64:	ff d0                	call   eax
 8048e66:	b8 ff ff ff ff       	mov    eax,0xffffffff
 8048e6b:	e9 5e 01 00 00       	jmp    8048fce <parse_v3+0x24e>
 8048e70:	8b 45 08             	mov    eax,DWORD PTR [ebp+0x8]
 8048e73:	8b 18                	mov    ebx,DWORD PTR [eax]
 8048e75:	8b 45 08             	mov    eax,DWORD PTR [ebp+0x8]
 8048e78:	8b 00                	mov    eax,DWORD PTR [eax]
 8048e7a:	8b 10                	mov    edx,DWORD PTR [eax]
 8048e7c:	8b 45 08             	mov    eax,DWORD PTR [ebp+0x8]
 8048e7f:	8b 00                	mov    eax,DWORD PTR [eax]
 8048e81:	8b 40 04             	mov    eax,DWORD PTR [eax+0x4]
 8048e84:	0f af d0             	imul   edx,eax
 8048e87:	89 d0                	mov    eax,edx
 8048e89:	01 c0                	add    eax,eax
 8048e8b:	01 d0                	add    eax,edx
 8048e8d:	89 04 24             	mov    DWORD PTR [esp],eax
 8048e90:	e8 1a 41 00 00       	call   804cfaf <malloc>
 8048e95:	89 43 08             	mov    DWORD PTR [ebx+0x8],eax
 8048e98:	8b 43 08             	mov    eax,DWORD PTR [ebx+0x8]
 8048e9b:	85 c0                	test   eax,eax
 8048e9d:	75 16                	jne    8048eb5 <parse_v3+0x135>
 8048e9f:	c7 04 24 f8 e2 04 08 	mov    DWORD PTR [esp],0x804e2f8
 8048ea6:	e8 25 fb ff ff       	call   80489d0 <perror@plt>
 8048eab:	b8 ff ff ff ff       	mov    eax,0xffffffff
 8048eb0:	e9 19 01 00 00       	jmp    8048fce <parse_v3+0x24e>
 8048eb5:	c7 45 f0 00 00 00 00 	mov    DWORD PTR [ebp-0x10],0x0
 8048ebc:	e9 f9 00 00 00       	jmp    8048fba <parse_v3+0x23a>
 8048ec1:	8b 45 ec             	mov    eax,DWORD PTR [ebp-0x14]
 8048ec4:	8b 48 0a             	mov    ecx,DWORD PTR [eax+0xa]
 8048ec7:	8b 45 e8             	mov    eax,DWORD PTR [ebp-0x18]
 8048eca:	8b 40 08             	mov    eax,DWORD PTR [eax+0x8]
 8048ecd:	2b 45 f0             	sub    eax,DWORD PTR [ebp-0x10]
 8048ed0:	8d 58 ff             	lea    ebx,[eax-0x1]
 8048ed3:	8b 45 e8             	mov    eax,DWORD PTR [ebp-0x18]
 8048ed6:	8b 40 04             	mov    eax,DWORD PTR [eax+0x4]
 8048ed9:	8d 50 01             	lea    edx,[eax+0x1]
 8048edc:	89 d0                	mov    eax,edx
 8048ede:	01 c0                	add    eax,eax
 8048ee0:	01 d0                	add    eax,edx
 8048ee2:	83 e0 fc             	and    eax,0xfffffffc
 8048ee5:	0f af c3             	imul   eax,ebx
 8048ee8:	8d 14 01             	lea    edx,[ecx+eax*1]
 8048eeb:	8b 45 0c             	mov    eax,DWORD PTR [ebp+0xc]
 8048eee:	01 d0                	add    eax,edx
 8048ef0:	89 45 e4             	mov    DWORD PTR [ebp-0x1c],eax
 8048ef3:	c7 45 f4 00 00 00 00 	mov    DWORD PTR [ebp-0xc],0x0
 8048efa:	e9 a8 00 00 00       	jmp    8048fa7 <parse_v3+0x227>
 8048eff:	8b 45 08             	mov    eax,DWORD PTR [ebp+0x8]
 8048f02:	8b 00                	mov    eax,DWORD PTR [eax]
 8048f04:	8b 48 08             	mov    ecx,DWORD PTR [eax+0x8]
 8048f07:	8b 45 e8             	mov    eax,DWORD PTR [ebp-0x18]
 8048f0a:	8b 40 04             	mov    eax,DWORD PTR [eax+0x4]
 8048f0d:	89 c2                	mov    edx,eax
 8048f0f:	0f af 55 f0          	imul   edx,DWORD PTR [ebp-0x10]
 8048f13:	8b 45 f4             	mov    eax,DWORD PTR [ebp-0xc]
 8048f16:	01 c2                	add    edx,eax
 8048f18:	89 d0                	mov    eax,edx
 8048f1a:	01 c0                	add    eax,eax
 8048f1c:	01 d0                	add    eax,edx
 8048f1e:	01 c1                	add    ecx,eax
 8048f20:	8b 55 f4             	mov    edx,DWORD PTR [ebp-0xc]
 8048f23:	89 d0                	mov    eax,edx
 8048f25:	01 c0                	add    eax,eax
 8048f27:	01 c2                	add    edx,eax
 8048f29:	8b 45 e4             	mov    eax,DWORD PTR [ebp-0x1c]
 8048f2c:	01 d0                	add    eax,edx
 8048f2e:	0f b6 00             	movzx  eax,BYTE PTR [eax]
 8048f31:	88 01                	mov    BYTE PTR [ecx],al
 8048f33:	8b 45 08             	mov    eax,DWORD PTR [ebp+0x8]
 8048f36:	8b 00                	mov    eax,DWORD PTR [eax]
 8048f38:	8b 48 08             	mov    ecx,DWORD PTR [eax+0x8]
 8048f3b:	8b 45 e8             	mov    eax,DWORD PTR [ebp-0x18]
 8048f3e:	8b 40 04             	mov    eax,DWORD PTR [eax+0x4]
 8048f41:	89 c2                	mov    edx,eax
 8048f43:	0f af 55 f0          	imul   edx,DWORD PTR [ebp-0x10]
 8048f47:	8b 45 f4             	mov    eax,DWORD PTR [ebp-0xc]
 8048f4a:	01 c2                	add    edx,eax
 8048f4c:	89 d0                	mov    eax,edx
 8048f4e:	01 c0                	add    eax,eax
 8048f50:	01 d0                	add    eax,edx
 8048f52:	01 c1                	add    ecx,eax
 8048f54:	8b 55 f4             	mov    edx,DWORD PTR [ebp-0xc]
 8048f57:	89 d0                	mov    eax,edx
 8048f59:	01 c0                	add    eax,eax
 8048f5b:	01 d0                	add    eax,edx
 8048f5d:	8d 50 01             	lea    edx,[eax+0x1]
 8048f60:	8b 45 e4             	mov    eax,DWORD PTR [ebp-0x1c]
 8048f63:	01 d0                	add    eax,edx
 8048f65:	0f b6 00             	movzx  eax,BYTE PTR [eax]
 8048f68:	88 41 01             	mov    BYTE PTR [ecx+0x1],al
 8048f6b:	8b 45 08             	mov    eax,DWORD PTR [ebp+0x8]
 8048f6e:	8b 00                	mov    eax,DWORD PTR [eax]
 8048f70:	8b 48 08             	mov    ecx,DWORD PTR [eax+0x8]
 8048f73:	8b 45 e8             	mov    eax,DWORD PTR [ebp-0x18]
 8048f76:	8b 40 04             	mov    eax,DWORD PTR [eax+0x4]
 8048f79:	89 c2                	mov    edx,eax
 8048f7b:	0f af 55 f0          	imul   edx,DWORD PTR [ebp-0x10]
 8048f7f:	8b 45 f4             	mov    eax,DWORD PTR [ebp-0xc]
 8048f82:	01 c2                	add    edx,eax
 8048f84:	89 d0                	mov    eax,edx
 8048f86:	01 c0                	add    eax,eax
 8048f88:	01 d0                	add    eax,edx
 8048f8a:	01 c1                	add    ecx,eax
 8048f8c:	8b 55 f4             	mov    edx,DWORD PTR [ebp-0xc]
 8048f8f:	89 d0                	mov    eax,edx
 8048f91:	01 c0                	add    eax,eax
 8048f93:	01 d0                	add    eax,edx
 8048f95:	8d 50 02             	lea    edx,[eax+0x2]
 8048f98:	8b 45 e4             	mov    eax,DWORD PTR [ebp-0x1c]
 8048f9b:	01 d0                	add    eax,edx
 8048f9d:	0f b6 00             	movzx  eax,BYTE PTR [eax]
 8048fa0:	88 41 02             	mov    BYTE PTR [ecx+0x2],al
 8048fa3:	83 45 f4 01          	add    DWORD PTR [ebp-0xc],0x1
 8048fa7:	8b 45 e8             	mov    eax,DWORD PTR [ebp-0x18]
 8048faa:	8b 40 04             	mov    eax,DWORD PTR [eax+0x4]
 8048fad:	3b 45 f4             	cmp    eax,DWORD PTR [ebp-0xc]
 8048fb0:	0f 87 49 ff ff ff    	ja     8048eff <parse_v3+0x17f>
 8048fb6:	83 45 f0 01          	add    DWORD PTR [ebp-0x10],0x1
 8048fba:	8b 45 e8             	mov    eax,DWORD PTR [ebp-0x18]
 8048fbd:	8b 40 08             	mov    eax,DWORD PTR [eax+0x8]
 8048fc0:	3b 45 f0             	cmp    eax,DWORD PTR [ebp-0x10]
 8048fc3:	0f 87 f8 fe ff ff    	ja     8048ec1 <parse_v3+0x141>
 8048fc9:	b8 00 00 00 00       	mov    eax,0x0
 8048fce:	83 c4 34             	add    esp,0x34
 8048fd1:	5b                   	pop    ebx
 8048fd2:	5d                   	pop    ebp
 8048fd3:	c3                   	ret    

08048fd4 <find_extension>:
 8048fd4:	55                   	push   ebp
 8048fd5:	89 e5                	mov    ebp,esp
 8048fd7:	83 ec 28             	sub    esp,0x28
 8048fda:	c7 44 24 04 2e 00 00 	mov    DWORD PTR [esp+0x4],0x2e
 8048fe1:	00 
 8048fe2:	8b 45 0c             	mov    eax,DWORD PTR [ebp+0xc]
 8048fe5:	89 04 24             	mov    DWORD PTR [esp],eax
 8048fe8:	e8 f3 fa ff ff       	call   8048ae0 <strrchr@plt>
 8048fed:	89 45 f4             	mov    DWORD PTR [ebp-0xc],eax
 8048ff0:	83 7d f4 00          	cmp    DWORD PTR [ebp-0xc],0x0
 8048ff4:	75 07                	jne    8048ffd <find_extension+0x29>
 8048ff6:	b8 ff ff ff ff       	mov    eax,0xffffffff
 8048ffb:	eb 1a                	jmp    8049017 <find_extension+0x43>
 8048ffd:	8b 45 f4             	mov    eax,DWORD PTR [ebp-0xc]
 8049000:	83 c0 01             	add    eax,0x1
 8049003:	89 44 24 04          	mov    DWORD PTR [esp+0x4],eax
 8049007:	8b 45 08             	mov    eax,DWORD PTR [ebp+0x8]
 804900a:	89 04 24             	mov    DWORD PTR [esp],eax
 804900d:	e8 de f9 ff ff       	call   80489f0 <strcpy@plt>
 8049012:	b8 00 00 00 00       	mov    eax,0x0
 8049017:	c9                   	leave  
 8049018:	c3                   	ret    

08049019 <img_read>:
 8049019:	55                   	push   ebp
 804901a:	89 e5                	mov    ebp,esp
 804901c:	83 ec 48             	sub    esp,0x48
 804901f:	8b 45 0c             	mov    eax,DWORD PTR [ebp+0xc]
 8049022:	8b 00                	mov    eax,DWORD PTR [eax]
 8049024:	89 45 f0             	mov    DWORD PTR [ebp-0x10],eax
 8049027:	83 7d f0 00          	cmp    DWORD PTR [ebp-0x10],0x0
 804902b:	74 0a                	je     8049037 <img_read+0x1e>
 804902d:	8b 45 f0             	mov    eax,DWORD PTR [ebp-0x10]
 8049030:	0f b6 00             	movzx  eax,BYTE PTR [eax]
 8049033:	3c 2d                	cmp    al,0x2d
 8049035:	75 2f                	jne    8049066 <img_read+0x4d>
 8049037:	a1 40 0b 05 08       	mov    eax,ds:0x8050b40
 804903c:	89 44 24 0c          	mov    DWORD PTR [esp+0xc],eax
 8049040:	c7 44 24 08 16 00 00 	mov    DWORD PTR [esp+0x8],0x16
 8049047:	00 
 8049048:	c7 44 24 04 01 00 00 	mov    DWORD PTR [esp+0x4],0x1
 804904f:	00 
 8049050:	c7 04 24 08 e3 04 08 	mov    DWORD PTR [esp],0x804e308
 8049057:	e8 84 f9 ff ff       	call   80489e0 <fwrite@plt>
 804905c:	b8 ff ff ff ff       	mov    eax,0xffffffff
 8049061:	e9 1d 02 00 00       	jmp    8049283 <img_read+0x26a>
 8049066:	c7 04 24 0c 00 00 00 	mov    DWORD PTR [esp],0xc
 804906d:	e8 3d 3f 00 00       	call   804cfaf <malloc>
 8049072:	89 c2                	mov    edx,eax
 8049074:	8b 45 08             	mov    eax,DWORD PTR [ebp+0x8]
 8049077:	89 10                	mov    DWORD PTR [eax],edx
 8049079:	8b 45 08             	mov    eax,DWORD PTR [ebp+0x8]
 804907c:	8b 00                	mov    eax,DWORD PTR [eax]
 804907e:	85 c0                	test   eax,eax
 8049080:	75 16                	jne    8049098 <img_read+0x7f>
 8049082:	c7 04 24 f8 e2 04 08 	mov    DWORD PTR [esp],0x804e2f8
 8049089:	e8 42 f9 ff ff       	call   80489d0 <perror@plt>
 804908e:	b8 ff ff ff ff       	mov    eax,0xffffffff
 8049093:	e9 eb 01 00 00       	jmp    8049283 <img_read+0x26a>
 8049098:	8b 45 f0             	mov    eax,DWORD PTR [ebp-0x10]
 804909b:	89 44 24 04          	mov    DWORD PTR [esp+0x4],eax
 804909f:	c7 04 24 70 0d 05 08 	mov    DWORD PTR [esp],0x8050d70
 80490a6:	e8 45 f9 ff ff       	call   80489f0 <strcpy@plt>
 80490ab:	c7 44 24 04 70 0d 05 	mov    DWORD PTR [esp+0x4],0x8050d70
 80490b2:	08 
 80490b3:	8d 45 d0             	lea    eax,[ebp-0x30]
 80490b6:	83 c0 04             	add    eax,0x4
 80490b9:	89 04 24             	mov    DWORD PTR [esp],eax
 80490bc:	e8 13 ff ff ff       	call   8048fd4 <find_extension>
 80490c1:	85 c0                	test   eax,eax
 80490c3:	74 18                	je     80490dd <img_read+0xc4>
 80490c5:	a1 28 0b 05 08       	mov    eax,ds:0x8050b28
 80490ca:	c7 04 24 20 e3 04 08 	mov    DWORD PTR [esp],0x804e320
 80490d1:	ff d0                	call   eax
 80490d3:	b8 ff ff ff ff       	mov    eax,0xffffffff
 80490d8:	e9 a6 01 00 00       	jmp    8049283 <img_read+0x26a>
 80490dd:	c7 44 24 04 40 e3 04 	mov    DWORD PTR [esp+0x4],0x804e340
 80490e4:	08 
 80490e5:	8d 45 d0             	lea    eax,[ebp-0x30]
 80490e8:	83 c0 04             	add    eax,0x4
 80490eb:	89 04 24             	mov    DWORD PTR [esp],eax
 80490ee:	e8 9d f9 ff ff       	call   8048a90 <strcasecmp@plt>
 80490f3:	85 c0                	test   eax,eax
 80490f5:	74 18                	je     804910f <img_read+0xf6>
 80490f7:	a1 28 0b 05 08       	mov    eax,ds:0x8050b28
 80490fc:	c7 04 24 44 e3 04 08 	mov    DWORD PTR [esp],0x804e344
 8049103:	ff d0                	call   eax
 8049105:	b8 ff ff ff ff       	mov    eax,0xffffffff
 804910a:	e9 74 01 00 00       	jmp    8049283 <img_read+0x26a>
 804910f:	c7 44 24 04 00 00 00 	mov    DWORD PTR [esp+0x4],0x0
 8049116:	00 
 8049117:	c7 04 24 70 0d 05 08 	mov    DWORD PTR [esp],0x8050d70
 804911e:	e8 fd f8 ff ff       	call   8048a20 <open@plt>
 8049123:	89 45 ec             	mov    DWORD PTR [ebp-0x14],eax
 8049126:	83 7d ec 00          	cmp    DWORD PTR [ebp-0x14],0x0
 804912a:	79 16                	jns    8049142 <img_read+0x129>
 804912c:	c7 04 24 5d e3 04 08 	mov    DWORD PTR [esp],0x804e35d
 8049133:	e8 98 f8 ff ff       	call   80489d0 <perror@plt>
 8049138:	b8 ff ff ff ff       	mov    eax,0xffffffff
 804913d:	e9 41 01 00 00       	jmp    8049283 <img_read+0x26a>
 8049142:	c7 44 24 08 0e 00 00 	mov    DWORD PTR [esp+0x8],0xe
 8049149:	00 
 804914a:	8d 45 da             	lea    eax,[ebp-0x26]
 804914d:	89 44 24 04          	mov    DWORD PTR [esp+0x4],eax
 8049151:	8b 45 ec             	mov    eax,DWORD PTR [ebp-0x14]
 8049154:	89 04 24             	mov    DWORD PTR [esp],eax
 8049157:	e8 14 f8 ff ff       	call   8048970 <read@plt>
 804915c:	85 c0                	test   eax,eax
 804915e:	79 16                	jns    8049176 <img_read+0x15d>
 8049160:	c7 04 24 6b e3 04 08 	mov    DWORD PTR [esp],0x804e36b
 8049167:	e8 64 f8 ff ff       	call   80489d0 <perror@plt>
 804916c:	b8 ff ff ff ff       	mov    eax,0xffffffff
 8049171:	e9 0d 01 00 00       	jmp    8049283 <img_read+0x26a>
 8049176:	0f b6 45 da          	movzx  eax,BYTE PTR [ebp-0x26]
 804917a:	3c 42                	cmp    al,0x42
 804917c:	75 08                	jne    8049186 <img_read+0x16d>
 804917e:	0f b6 45 db          	movzx  eax,BYTE PTR [ebp-0x25]
 8049182:	3c 4d                	cmp    al,0x4d
 8049184:	74 18                	je     804919e <img_read+0x185>
 8049186:	a1 28 0b 05 08       	mov    eax,ds:0x8050b28
 804918b:	c7 04 24 79 e3 04 08 	mov    DWORD PTR [esp],0x804e379
 8049192:	ff d0                	call   eax
 8049194:	b8 ff ff ff ff       	mov    eax,0xffffffff
 8049199:	e9 e5 00 00 00       	jmp    8049283 <img_read+0x26a>
 804919e:	8b 45 dc             	mov    eax,DWORD PTR [ebp-0x24]
 80491a1:	89 04 24             	mov    DWORD PTR [esp],eax
 80491a4:	e8 06 3e 00 00       	call   804cfaf <malloc>
 80491a9:	89 45 e8             	mov    DWORD PTR [ebp-0x18],eax
 80491ac:	83 7d e8 00          	cmp    DWORD PTR [ebp-0x18],0x0
 80491b0:	75 16                	jne    80491c8 <img_read+0x1af>
 80491b2:	c7 04 24 f8 e2 04 08 	mov    DWORD PTR [esp],0x804e2f8
 80491b9:	e8 12 f8 ff ff       	call   80489d0 <perror@plt>
 80491be:	b8 ff ff ff ff       	mov    eax,0xffffffff
 80491c3:	e9 bb 00 00 00       	jmp    8049283 <img_read+0x26a>
 80491c8:	c7 04 24 04 00 00 00 	mov    DWORD PTR [esp],0x4
 80491cf:	e8 db 3d 00 00       	call   804cfaf <malloc>
 80491d4:	c7 44 24 08 00 00 00 	mov    DWORD PTR [esp+0x8],0x0
 80491db:	00 
 80491dc:	c7 44 24 04 00 00 00 	mov    DWORD PTR [esp+0x4],0x0
 80491e3:	00 
 80491e4:	8b 45 ec             	mov    eax,DWORD PTR [ebp-0x14]
 80491e7:	89 04 24             	mov    DWORD PTR [esp],eax
 80491ea:	e8 c1 f7 ff ff       	call   80489b0 <lseek@plt>
 80491ef:	83 f8 ff             	cmp    eax,0xffffffff
 80491f2:	75 13                	jne    8049207 <img_read+0x1ee>
 80491f4:	c7 04 24 8a e3 04 08 	mov    DWORD PTR [esp],0x804e38a
 80491fb:	e8 d0 f7 ff ff       	call   80489d0 <perror@plt>
 8049200:	b8 ff ff ff ff       	mov    eax,0xffffffff
 8049205:	eb 7c                	jmp    8049283 <img_read+0x26a>
 8049207:	8b 45 e8             	mov    eax,DWORD PTR [ebp-0x18]
 804920a:	89 45 f4             	mov    DWORD PTR [ebp-0xc],eax
 804920d:	eb 06                	jmp    8049215 <img_read+0x1fc>
 804920f:	8b 45 d0             	mov    eax,DWORD PTR [ebp-0x30]
 8049212:	01 45 f4             	add    DWORD PTR [ebp-0xc],eax
 8049215:	c7 44 24 08 00 10 00 	mov    DWORD PTR [esp+0x8],0x1000
 804921c:	00 
 804921d:	8b 45 f4             	mov    eax,DWORD PTR [ebp-0xc]
 8049220:	89 44 24 04          	mov    DWORD PTR [esp+0x4],eax
 8049224:	8b 45 ec             	mov    eax,DWORD PTR [ebp-0x14]
 8049227:	89 04 24             	mov    DWORD PTR [esp],eax
 804922a:	e8 41 f7 ff ff       	call   8048970 <read@plt>
 804922f:	89 45 d0             	mov    DWORD PTR [ebp-0x30],eax
 8049232:	8b 45 d0             	mov    eax,DWORD PTR [ebp-0x30]
 8049235:	85 c0                	test   eax,eax
 8049237:	7f d6                	jg     804920f <img_read+0x1f6>
 8049239:	8b 45 ec             	mov    eax,DWORD PTR [ebp-0x14]
 804923c:	89 04 24             	mov    DWORD PTR [esp],eax
 804923f:	e8 fc f8 ff ff       	call   8048b40 <close@plt>
 8049244:	8b 45 e8             	mov    eax,DWORD PTR [ebp-0x18]
 8049247:	83 c0 0e             	add    eax,0xe
 804924a:	8b 00                	mov    eax,DWORD PTR [eax]
 804924c:	83 f8 28             	cmp    eax,0x28
 804924f:	75 14                	jne    8049265 <img_read+0x24c>
 8049251:	8b 45 e8             	mov    eax,DWORD PTR [ebp-0x18]
 8049254:	89 44 24 04          	mov    DWORD PTR [esp+0x4],eax
 8049258:	8b 45 08             	mov    eax,DWORD PTR [ebp+0x8]
 804925b:	89 04 24             	mov    DWORD PTR [esp],eax
 804925e:	e8 1d fb ff ff       	call   8048d80 <parse_v3>
 8049263:	eb 1e                	jmp    8049283 <img_read+0x26a>
 8049265:	8b 45 e8             	mov    eax,DWORD PTR [ebp-0x18]
 8049268:	89 04 24             	mov    DWORD PTR [esp],eax
 804926b:	e8 f2 41 00 00       	call   804d462 <free>
 8049270:	a1 28 0b 05 08       	mov    eax,ds:0x8050b28
 8049275:	c7 04 24 99 e3 04 08 	mov    DWORD PTR [esp],0x804e399
 804927c:	ff d0                	call   eax
 804927e:	b8 ff ff ff ff       	mov    eax,0xffffffff
 8049283:	c9                   	leave  
 8049284:	c3                   	ret    
 8049285:	90                   	nop
 8049286:	90                   	nop
 8049287:	90                   	nop

08049288 <img_write>:
 8049288:	55                   	push   ebp
 8049289:	89 e5                	mov    ebp,esp
 804928b:	81 ec e8 00 00 00    	sub    esp,0xe8
 8049291:	8b 45 0c             	mov    eax,DWORD PTR [ebp+0xc]
 8049294:	8b 00                	mov    eax,DWORD PTR [eax]
 8049296:	85 c0                	test   eax,eax
 8049298:	74 0c                	je     80492a6 <img_write+0x1e>
 804929a:	8b 45 0c             	mov    eax,DWORD PTR [ebp+0xc]
 804929d:	8b 00                	mov    eax,DWORD PTR [eax]
 804929f:	0f b6 00             	movzx  eax,BYTE PTR [eax]
 80492a2:	3c 2d                	cmp    al,0x2d
 80492a4:	75 5b                	jne    8049301 <img_write+0x79>
 80492a6:	c7 44 24 08 70 0d 05 	mov    DWORD PTR [esp+0x8],0x8050d70
 80492ad:	08 
 80492ae:	c7 44 24 04 af e3 04 	mov    DWORD PTR [esp+0x4],0x804e3af
 80492b5:	08 
 80492b6:	8d 85 36 ff ff ff    	lea    eax,[ebp-0xca]
 80492bc:	89 04 24             	mov    DWORD PTR [esp],eax
 80492bf:	e8 2c f8 ff ff       	call   8048af0 <sprintf@plt>
 80492c4:	c7 44 24 08 80 01 00 	mov    DWORD PTR [esp+0x8],0x180
 80492cb:	00 
 80492cc:	c7 44 24 04 41 00 00 	mov    DWORD PTR [esp+0x4],0x41
 80492d3:	00 
 80492d4:	8d 85 36 ff ff ff    	lea    eax,[ebp-0xca]
 80492da:	89 04 24             	mov    DWORD PTR [esp],eax
 80492dd:	e8 3e f7 ff ff       	call   8048a20 <open@plt>
 80492e2:	89 45 f4             	mov    DWORD PTR [ebp-0xc],eax
 80492e5:	83 7d f4 00          	cmp    DWORD PTR [ebp-0xc],0x0
 80492e9:	79 52                	jns    804933d <img_write+0xb5>
 80492eb:	c7 04 24 b6 e3 04 08 	mov    DWORD PTR [esp],0x804e3b6
 80492f2:	e8 d9 f6 ff ff       	call   80489d0 <perror@plt>
 80492f7:	b8 ff ff ff ff       	mov    eax,0xffffffff
 80492fc:	e9 f1 01 00 00       	jmp    80494f2 <img_write+0x26a>
 8049301:	8b 45 0c             	mov    eax,DWORD PTR [ebp+0xc]
 8049304:	8b 00                	mov    eax,DWORD PTR [eax]
 8049306:	c7 44 24 08 80 01 00 	mov    DWORD PTR [esp+0x8],0x180
 804930d:	00 
 804930e:	c7 44 24 04 41 00 00 	mov    DWORD PTR [esp+0x4],0x41
 8049315:	00 
 8049316:	89 04 24             	mov    DWORD PTR [esp],eax
 8049319:	e8 02 f7 ff ff       	call   8048a20 <open@plt>
 804931e:	89 45 f4             	mov    DWORD PTR [ebp-0xc],eax
 8049321:	83 7d f4 00          	cmp    DWORD PTR [ebp-0xc],0x0
 8049325:	79 16                	jns    804933d <img_write+0xb5>
 8049327:	c7 04 24 b6 e3 04 08 	mov    DWORD PTR [esp],0x804e3b6
 804932e:	e8 9d f6 ff ff       	call   80489d0 <perror@plt>
 8049333:	b8 ff ff ff ff       	mov    eax,0xffffffff
 8049338:	e9 b5 01 00 00       	jmp    80494f2 <img_write+0x26a>
 804933d:	c7 44 24 08 0e 00 00 	mov    DWORD PTR [esp+0x8],0xe
 8049344:	00 
 8049345:	c7 44 24 04 00 00 00 	mov    DWORD PTR [esp+0x4],0x0
 804934c:	00 
 804934d:	8d 45 de             	lea    eax,[ebp-0x22]
 8049350:	89 04 24             	mov    DWORD PTR [esp],eax
 8049353:	e8 48 f7 ff ff       	call   8048aa0 <memset@plt>
 8049358:	c6 45 de 42          	mov    BYTE PTR [ebp-0x22],0x42
 804935c:	c6 45 df 4d          	mov    BYTE PTR [ebp-0x21],0x4d
 8049360:	8b 45 08             	mov    eax,DWORD PTR [ebp+0x8]
 8049363:	8b 00                	mov    eax,DWORD PTR [eax]
 8049365:	8b 48 04             	mov    ecx,DWORD PTR [eax+0x4]
 8049368:	8b 45 08             	mov    eax,DWORD PTR [ebp+0x8]
 804936b:	8b 00                	mov    eax,DWORD PTR [eax]
 804936d:	8b 00                	mov    eax,DWORD PTR [eax]
 804936f:	8d 50 01             	lea    edx,[eax+0x1]
 8049372:	89 d0                	mov    eax,edx
 8049374:	01 c0                	add    eax,eax
 8049376:	01 d0                	add    eax,edx
 8049378:	83 e0 fc             	and    eax,0xfffffffc
 804937b:	0f af c1             	imul   eax,ecx
 804937e:	83 c0 36             	add    eax,0x36
 8049381:	89 45 e0             	mov    DWORD PTR [ebp-0x20],eax
 8049384:	c7 45 e8 36 00 00 00 	mov    DWORD PTR [ebp-0x18],0x36
 804938b:	c7 44 24 08 0e 00 00 	mov    DWORD PTR [esp+0x8],0xe
 8049392:	00 
 8049393:	8d 45 de             	lea    eax,[ebp-0x22]
 8049396:	89 44 24 04          	mov    DWORD PTR [esp+0x4],eax
 804939a:	8b 45 f4             	mov    eax,DWORD PTR [ebp-0xc]
 804939d:	89 04 24             	mov    DWORD PTR [esp],eax
 80493a0:	e8 db f6 ff ff       	call   8048a80 <write@plt>
 80493a5:	83 f8 0e             	cmp    eax,0xe
 80493a8:	74 16                	je     80493c0 <img_write+0x138>
 80493aa:	c7 04 24 c4 e3 04 08 	mov    DWORD PTR [esp],0x804e3c4
 80493b1:	e8 1a f6 ff ff       	call   80489d0 <perror@plt>
 80493b6:	b8 ff ff ff ff       	mov    eax,0xffffffff
 80493bb:	e9 32 01 00 00       	jmp    80494f2 <img_write+0x26a>
 80493c0:	c7 44 24 08 28 00 00 	mov    DWORD PTR [esp+0x8],0x28
 80493c7:	00 
 80493c8:	c7 44 24 04 00 00 00 	mov    DWORD PTR [esp+0x4],0x0
 80493cf:	00 
 80493d0:	8d 45 b6             	lea    eax,[ebp-0x4a]
 80493d3:	89 04 24             	mov    DWORD PTR [esp],eax
 80493d6:	e8 c5 f6 ff ff       	call   8048aa0 <memset@plt>
 80493db:	c7 45 b6 28 00 00 00 	mov    DWORD PTR [ebp-0x4a],0x28
 80493e2:	8b 45 08             	mov    eax,DWORD PTR [ebp+0x8]
 80493e5:	8b 00                	mov    eax,DWORD PTR [eax]
 80493e7:	8b 00                	mov    eax,DWORD PTR [eax]
 80493e9:	89 45 ba             	mov    DWORD PTR [ebp-0x46],eax
 80493ec:	8b 45 08             	mov    eax,DWORD PTR [ebp+0x8]
 80493ef:	8b 00                	mov    eax,DWORD PTR [eax]
 80493f1:	8b 40 04             	mov    eax,DWORD PTR [eax+0x4]
 80493f4:	89 45 be             	mov    DWORD PTR [ebp-0x42],eax
 80493f7:	66 c7 45 c2 01 00    	mov    WORD PTR [ebp-0x3e],0x1
 80493fd:	66 c7 45 c4 18 00    	mov    WORD PTR [ebp-0x3c],0x18
 8049403:	8b 45 08             	mov    eax,DWORD PTR [ebp+0x8]
 8049406:	8b 00                	mov    eax,DWORD PTR [eax]
 8049408:	8b 48 04             	mov    ecx,DWORD PTR [eax+0x4]
 804940b:	8b 45 08             	mov    eax,DWORD PTR [ebp+0x8]
 804940e:	8b 00                	mov    eax,DWORD PTR [eax]
 8049410:	8b 00                	mov    eax,DWORD PTR [eax]
 8049412:	8d 50 01             	lea    edx,[eax+0x1]
 8049415:	89 d0                	mov    eax,edx
 8049417:	01 c0                	add    eax,eax
 8049419:	01 d0                	add    eax,edx
 804941b:	83 e0 fc             	and    eax,0xfffffffc
 804941e:	0f af c1             	imul   eax,ecx
 8049421:	89 45 ca             	mov    DWORD PTR [ebp-0x36],eax
 8049424:	c7 44 24 08 28 00 00 	mov    DWORD PTR [esp+0x8],0x28
 804942b:	00 
 804942c:	8d 45 b6             	lea    eax,[ebp-0x4a]
 804942f:	89 44 24 04          	mov    DWORD PTR [esp+0x4],eax
 8049433:	8b 45 f4             	mov    eax,DWORD PTR [ebp-0xc]
 8049436:	89 04 24             	mov    DWORD PTR [esp],eax
 8049439:	e8 42 f6 ff ff       	call   8048a80 <write@plt>
 804943e:	83 f8 28             	cmp    eax,0x28
 8049441:	74 16                	je     8049459 <img_write+0x1d1>
 8049443:	c7 04 24 c4 e3 04 08 	mov    DWORD PTR [esp],0x804e3c4
 804944a:	e8 81 f5 ff ff       	call   80489d0 <perror@plt>
 804944f:	b8 ff ff ff ff       	mov    eax,0xffffffff
 8049454:	e9 99 00 00 00       	jmp    80494f2 <img_write+0x26a>
 8049459:	8b 45 be             	mov    eax,DWORD PTR [ebp-0x42]
 804945c:	83 e8 01             	sub    eax,0x1
 804945f:	89 45 ec             	mov    DWORD PTR [ebp-0x14],eax
 8049462:	eb 78                	jmp    80494dc <img_write+0x254>
 8049464:	c7 45 f0 00 00 00 00 	mov    DWORD PTR [ebp-0x10],0x0
 804946b:	eb 39                	jmp    80494a6 <img_write+0x21e>
 804946d:	8b 45 08             	mov    eax,DWORD PTR [ebp+0x8]
 8049470:	8b 00                	mov    eax,DWORD PTR [eax]
 8049472:	8b 48 08             	mov    ecx,DWORD PTR [eax+0x8]
 8049475:	8b 55 ba             	mov    edx,DWORD PTR [ebp-0x46]
 8049478:	8b 45 ec             	mov    eax,DWORD PTR [ebp-0x14]
 804947b:	0f af d0             	imul   edx,eax
 804947e:	8b 45 f0             	mov    eax,DWORD PTR [ebp-0x10]
 8049481:	01 c2                	add    edx,eax
 8049483:	89 d0                	mov    eax,edx
 8049485:	01 c0                	add    eax,eax
 8049487:	01 d0                	add    eax,edx
 8049489:	01 c8                	add    eax,ecx
 804948b:	c7 44 24 08 03 00 00 	mov    DWORD PTR [esp+0x8],0x3
 8049492:	00 
 8049493:	89 44 24 04          	mov    DWORD PTR [esp+0x4],eax
 8049497:	8b 45 f4             	mov    eax,DWORD PTR [ebp-0xc]
 804949a:	89 04 24             	mov    DWORD PTR [esp],eax
 804949d:	e8 de f5 ff ff       	call   8048a80 <write@plt>
 80494a2:	83 45 f0 01          	add    DWORD PTR [ebp-0x10],0x1
 80494a6:	8b 55 f0             	mov    edx,DWORD PTR [ebp-0x10]
 80494a9:	8b 45 ba             	mov    eax,DWORD PTR [ebp-0x46]
 80494ac:	39 c2                	cmp    edx,eax
 80494ae:	72 bd                	jb     804946d <img_write+0x1e5>
 80494b0:	8b 45 ba             	mov    eax,DWORD PTR [ebp-0x46]
 80494b3:	8d 50 01             	lea    edx,[eax+0x1]
 80494b6:	89 d0                	mov    eax,edx
 80494b8:	01 c0                	add    eax,eax
 80494ba:	01 d0                	add    eax,edx
 80494bc:	f7 d0                	not    eax
 80494be:	83 e0 03             	and    eax,0x3
 80494c1:	89 44 24 08          	mov    DWORD PTR [esp+0x8],eax
 80494c5:	c7 44 24 04 d3 e3 04 	mov    DWORD PTR [esp+0x4],0x804e3d3
 80494cc:	08 
 80494cd:	8b 45 f4             	mov    eax,DWORD PTR [ebp-0xc]
 80494d0:	89 04 24             	mov    DWORD PTR [esp],eax
 80494d3:	e8 a8 f5 ff ff       	call   8048a80 <write@plt>
 80494d8:	83 6d ec 01          	sub    DWORD PTR [ebp-0x14],0x1
 80494dc:	83 7d ec 00          	cmp    DWORD PTR [ebp-0x14],0x0
 80494e0:	79 82                	jns    8049464 <img_write+0x1dc>
 80494e2:	8b 45 f4             	mov    eax,DWORD PTR [ebp-0xc]
 80494e5:	89 04 24             	mov    DWORD PTR [esp],eax
 80494e8:	e8 53 f6 ff ff       	call   8048b40 <close@plt>
 80494ed:	b8 00 00 00 00       	mov    eax,0x0
 80494f2:	c9                   	leave  
 80494f3:	c3                   	ret    

080494f4 <img_dump>:
 80494f4:	55                   	push   ebp
 80494f5:	89 e5                	mov    ebp,esp
 80494f7:	56                   	push   esi
 80494f8:	53                   	push   ebx
 80494f9:	83 ec 60             	sub    esp,0x60
 80494fc:	8b 45 08             	mov    eax,DWORD PTR [ebp+0x8]
 80494ff:	8b 00                	mov    eax,DWORD PTR [eax]
 8049501:	89 45 b4             	mov    DWORD PTR [ebp-0x4c],eax
 8049504:	c7 44 24 08 70 0d 05 	mov    DWORD PTR [esp+0x8],0x8050d70
 804950b:	08 
 804950c:	c7 44 24 04 d8 e3 04 	mov    DWORD PTR [esp+0x4],0x804e3d8
 8049513:	08 
 8049514:	8d 45 ac             	lea    eax,[ebp-0x54]
 8049517:	83 c0 0c             	add    eax,0xc
 804951a:	89 04 24             	mov    DWORD PTR [esp],eax
 804951d:	e8 ce f5 ff ff       	call   8048af0 <sprintf@plt>
 8049522:	c7 44 24 04 28 0b 05 	mov    DWORD PTR [esp+0x4],0x8050b28
 8049529:	08 
 804952a:	8d 45 ac             	lea    eax,[ebp-0x54]
 804952d:	83 c0 0c             	add    eax,0xc
 8049530:	89 04 24             	mov    DWORD PTR [esp],eax
 8049533:	e8 48 f4 ff ff       	call   8048980 <printf@plt>
 8049538:	c7 45 b0 00 00 00 00 	mov    DWORD PTR [ebp-0x50],0x0
 804953f:	e9 c0 00 00 00       	jmp    8049604 <img_dump+0x110>
 8049544:	c7 45 ac 00 00 00 00 	mov    DWORD PTR [ebp-0x54],0x0
 804954b:	e9 8f 00 00 00       	jmp    80495df <img_dump+0xeb>
 8049550:	8b 45 b4             	mov    eax,DWORD PTR [ebp-0x4c]
 8049553:	8b 48 08             	mov    ecx,DWORD PTR [eax+0x8]
 8049556:	8b 55 b0             	mov    edx,DWORD PTR [ebp-0x50]
 8049559:	8b 45 b4             	mov    eax,DWORD PTR [ebp-0x4c]
 804955c:	8b 00                	mov    eax,DWORD PTR [eax]
 804955e:	0f af d0             	imul   edx,eax
 8049561:	8b 45 ac             	mov    eax,DWORD PTR [ebp-0x54]
 8049564:	01 c2                	add    edx,eax
 8049566:	89 d0                	mov    eax,edx
 8049568:	01 c0                	add    eax,eax
 804956a:	01 d0                	add    eax,edx
 804956c:	01 c8                	add    eax,ecx
 804956e:	0f b6 00             	movzx  eax,BYTE PTR [eax]
 8049571:	0f b6 d8             	movzx  ebx,al
 8049574:	8b 45 b4             	mov    eax,DWORD PTR [ebp-0x4c]
 8049577:	8b 48 08             	mov    ecx,DWORD PTR [eax+0x8]
 804957a:	8b 55 b0             	mov    edx,DWORD PTR [ebp-0x50]
 804957d:	8b 45 b4             	mov    eax,DWORD PTR [ebp-0x4c]
 8049580:	8b 00                	mov    eax,DWORD PTR [eax]
 8049582:	0f af d0             	imul   edx,eax
 8049585:	8b 45 ac             	mov    eax,DWORD PTR [ebp-0x54]
 8049588:	01 c2                	add    edx,eax
 804958a:	89 d0                	mov    eax,edx
 804958c:	01 c0                	add    eax,eax
 804958e:	01 d0                	add    eax,edx
 8049590:	01 c8                	add    eax,ecx
 8049592:	0f b6 40 01          	movzx  eax,BYTE PTR [eax+0x1]
 8049596:	0f b6 c8             	movzx  ecx,al
 8049599:	8b 45 b4             	mov    eax,DWORD PTR [ebp-0x4c]
 804959c:	8b 70 08             	mov    esi,DWORD PTR [eax+0x8]
 804959f:	8b 55 b0             	mov    edx,DWORD PTR [ebp-0x50]
 80495a2:	8b 45 b4             	mov    eax,DWORD PTR [ebp-0x4c]
 80495a5:	8b 00                	mov    eax,DWORD PTR [eax]
 80495a7:	0f af d0             	imul   edx,eax
 80495aa:	8b 45 ac             	mov    eax,DWORD PTR [ebp-0x54]
 80495ad:	01 c2                	add    edx,eax
 80495af:	89 d0                	mov    eax,edx
 80495b1:	01 c0                	add    eax,eax
 80495b3:	01 d0                	add    eax,edx
 80495b5:	01 f0                	add    eax,esi
 80495b7:	0f b6 40 02          	movzx  eax,BYTE PTR [eax+0x2]
 80495bb:	0f b6 c0             	movzx  eax,al
 80495be:	89 5c 24 0c          	mov    DWORD PTR [esp+0xc],ebx
 80495c2:	89 4c 24 08          	mov    DWORD PTR [esp+0x8],ecx
 80495c6:	89 44 24 04          	mov    DWORD PTR [esp+0x4],eax
 80495ca:	c7 04 24 e7 e3 04 08 	mov    DWORD PTR [esp],0x804e3e7
 80495d1:	e8 aa f3 ff ff       	call   8048980 <printf@plt>
 80495d6:	8b 45 ac             	mov    eax,DWORD PTR [ebp-0x54]
 80495d9:	83 c0 01             	add    eax,0x1
 80495dc:	89 45 ac             	mov    DWORD PTR [ebp-0x54],eax
 80495df:	8b 55 ac             	mov    edx,DWORD PTR [ebp-0x54]
 80495e2:	8b 45 b4             	mov    eax,DWORD PTR [ebp-0x4c]
 80495e5:	8b 00                	mov    eax,DWORD PTR [eax]
 80495e7:	39 c2                	cmp    edx,eax
 80495e9:	0f 82 61 ff ff ff    	jb     8049550 <img_dump+0x5c>
 80495ef:	c7 04 24 0a 00 00 00 	mov    DWORD PTR [esp],0xa
 80495f6:	e8 b5 f4 ff ff       	call   8048ab0 <putchar@plt>
 80495fb:	8b 45 b0             	mov    eax,DWORD PTR [ebp-0x50]
 80495fe:	83 c0 01             	add    eax,0x1
 8049601:	89 45 b0             	mov    DWORD PTR [ebp-0x50],eax
 8049604:	8b 55 b0             	mov    edx,DWORD PTR [ebp-0x50]
 8049607:	8b 45 b4             	mov    eax,DWORD PTR [ebp-0x4c]
 804960a:	8b 40 04             	mov    eax,DWORD PTR [eax+0x4]
 804960d:	39 c2                	cmp    edx,eax
 804960f:	0f 82 2f ff ff ff    	jb     8049544 <img_dump+0x50>
 8049615:	b8 00 00 00 00       	mov    eax,0x0
 804961a:	83 c4 60             	add    esp,0x60
 804961d:	5b                   	pop    ebx
 804961e:	5e                   	pop    esi
 804961f:	5d                   	pop    ebp
 8049620:	c3                   	ret    
 8049621:	90                   	nop
 8049622:	90                   	nop
 8049623:	90                   	nop

08049624 <img_invert>:
 8049624:	55                   	push   ebp
 8049625:	89 e5                	mov    ebp,esp
 8049627:	53                   	push   ebx
 8049628:	83 ec 10             	sub    esp,0x10
 804962b:	c7 45 f4 00 00 00 00 	mov    DWORD PTR [ebp-0xc],0x0
 8049632:	e9 09 01 00 00       	jmp    8049740 <img_invert+0x11c>
 8049637:	c7 45 f8 00 00 00 00 	mov    DWORD PTR [ebp-0x8],0x0
 804963e:	e9 e9 00 00 00       	jmp    804972c <img_invert+0x108>
 8049643:	8b 45 08             	mov    eax,DWORD PTR [ebp+0x8]
 8049646:	8b 00                	mov    eax,DWORD PTR [eax]
 8049648:	8b 48 08             	mov    ecx,DWORD PTR [eax+0x8]
 804964b:	8b 45 08             	mov    eax,DWORD PTR [ebp+0x8]
 804964e:	8b 00                	mov    eax,DWORD PTR [eax]
 8049650:	8b 00                	mov    eax,DWORD PTR [eax]
 8049652:	89 c2                	mov    edx,eax
 8049654:	0f af 55 f4          	imul   edx,DWORD PTR [ebp-0xc]
 8049658:	8b 45 f8             	mov    eax,DWORD PTR [ebp-0x8]
 804965b:	01 c2                	add    edx,eax
 804965d:	89 d0                	mov    eax,edx
 804965f:	01 c0                	add    eax,eax
 8049661:	01 d0                	add    eax,edx
 8049663:	01 c1                	add    ecx,eax
 8049665:	8b 45 08             	mov    eax,DWORD PTR [ebp+0x8]
 8049668:	8b 00                	mov    eax,DWORD PTR [eax]
 804966a:	8b 58 08             	mov    ebx,DWORD PTR [eax+0x8]
 804966d:	8b 45 08             	mov    eax,DWORD PTR [ebp+0x8]
 8049670:	8b 00                	mov    eax,DWORD PTR [eax]
 8049672:	8b 00                	mov    eax,DWORD PTR [eax]
 8049674:	89 c2                	mov    edx,eax
 8049676:	0f af 55 f4          	imul   edx,DWORD PTR [ebp-0xc]
 804967a:	8b 45 f8             	mov    eax,DWORD PTR [ebp-0x8]
 804967d:	01 c2                	add    edx,eax
 804967f:	89 d0                	mov    eax,edx
 8049681:	01 c0                	add    eax,eax
 8049683:	01 d0                	add    eax,edx
 8049685:	01 d8                	add    eax,ebx
 8049687:	0f b6 40 02          	movzx  eax,BYTE PTR [eax+0x2]
 804968b:	f7 d0                	not    eax
 804968d:	88 41 02             	mov    BYTE PTR [ecx+0x2],al
 8049690:	8b 45 08             	mov    eax,DWORD PTR [ebp+0x8]
 8049693:	8b 00                	mov    eax,DWORD PTR [eax]
 8049695:	8b 48 08             	mov    ecx,DWORD PTR [eax+0x8]
 8049698:	8b 45 08             	mov    eax,DWORD PTR [ebp+0x8]
 804969b:	8b 00                	mov    eax,DWORD PTR [eax]
 804969d:	8b 00                	mov    eax,DWORD PTR [eax]
 804969f:	89 c2                	mov    edx,eax
 80496a1:	0f af 55 f4          	imul   edx,DWORD PTR [ebp-0xc]
 80496a5:	8b 45 f8             	mov    eax,DWORD PTR [ebp-0x8]
 80496a8:	01 c2                	add    edx,eax
 80496aa:	89 d0                	mov    eax,edx
 80496ac:	01 c0                	add    eax,eax
 80496ae:	01 d0                	add    eax,edx
 80496b0:	01 c1                	add    ecx,eax
 80496b2:	8b 45 08             	mov    eax,DWORD PTR [ebp+0x8]
 80496b5:	8b 00                	mov    eax,DWORD PTR [eax]
 80496b7:	8b 58 08             	mov    ebx,DWORD PTR [eax+0x8]
 80496ba:	8b 45 08             	mov    eax,DWORD PTR [ebp+0x8]
 80496bd:	8b 00                	mov    eax,DWORD PTR [eax]
 80496bf:	8b 00                	mov    eax,DWORD PTR [eax]
 80496c1:	89 c2                	mov    edx,eax
 80496c3:	0f af 55 f4          	imul   edx,DWORD PTR [ebp-0xc]
 80496c7:	8b 45 f8             	mov    eax,DWORD PTR [ebp-0x8]
 80496ca:	01 c2                	add    edx,eax
 80496cc:	89 d0                	mov    eax,edx
 80496ce:	01 c0                	add    eax,eax
 80496d0:	01 d0                	add    eax,edx
 80496d2:	01 d8                	add    eax,ebx
 80496d4:	0f b6 40 01          	movzx  eax,BYTE PTR [eax+0x1]
 80496d8:	f7 d0                	not    eax
 80496da:	88 41 01             	mov    BYTE PTR [ecx+0x1],al
 80496dd:	8b 45 08             	mov    eax,DWORD PTR [ebp+0x8]
 80496e0:	8b 00                	mov    eax,DWORD PTR [eax]
 80496e2:	8b 48 08             	mov    ecx,DWORD PTR [eax+0x8]
 80496e5:	8b 45 08             	mov    eax,DWORD PTR [ebp+0x8]
 80496e8:	8b 00                	mov    eax,DWORD PTR [eax]
 80496ea:	8b 00                	mov    eax,DWORD PTR [eax]
 80496ec:	89 c2                	mov    edx,eax
 80496ee:	0f af 55 f4          	imul   edx,DWORD PTR [ebp-0xc]
 80496f2:	8b 45 f8             	mov    eax,DWORD PTR [ebp-0x8]
 80496f5:	01 c2                	add    edx,eax
 80496f7:	89 d0                	mov    eax,edx
 80496f9:	01 c0                	add    eax,eax
 80496fb:	01 d0                	add    eax,edx
 80496fd:	01 c1                	add    ecx,eax
 80496ff:	8b 45 08             	mov    eax,DWORD PTR [ebp+0x8]
 8049702:	8b 00                	mov    eax,DWORD PTR [eax]
 8049704:	8b 58 08             	mov    ebx,DWORD PTR [eax+0x8]
 8049707:	8b 45 08             	mov    eax,DWORD PTR [ebp+0x8]
 804970a:	8b 00                	mov    eax,DWORD PTR [eax]
 804970c:	8b 00                	mov    eax,DWORD PTR [eax]
 804970e:	89 c2                	mov    edx,eax
 8049710:	0f af 55 f4          	imul   edx,DWORD PTR [ebp-0xc]
 8049714:	8b 45 f8             	mov    eax,DWORD PTR [ebp-0x8]
 8049717:	01 c2                	add    edx,eax
 8049719:	89 d0                	mov    eax,edx
 804971b:	01 c0                	add    eax,eax
 804971d:	01 d0                	add    eax,edx
 804971f:	01 d8                	add    eax,ebx
 8049721:	0f b6 00             	movzx  eax,BYTE PTR [eax]
 8049724:	f7 d0                	not    eax
 8049726:	88 01                	mov    BYTE PTR [ecx],al
 8049728:	83 45 f8 01          	add    DWORD PTR [ebp-0x8],0x1
 804972c:	8b 45 08             	mov    eax,DWORD PTR [ebp+0x8]
 804972f:	8b 00                	mov    eax,DWORD PTR [eax]
 8049731:	8b 00                	mov    eax,DWORD PTR [eax]
 8049733:	3b 45 f8             	cmp    eax,DWORD PTR [ebp-0x8]
 8049736:	0f 87 07 ff ff ff    	ja     8049643 <img_invert+0x1f>
 804973c:	83 45 f4 01          	add    DWORD PTR [ebp-0xc],0x1
 8049740:	8b 45 08             	mov    eax,DWORD PTR [ebp+0x8]
 8049743:	8b 00                	mov    eax,DWORD PTR [eax]
 8049745:	8b 40 04             	mov    eax,DWORD PTR [eax+0x4]
 8049748:	3b 45 f4             	cmp    eax,DWORD PTR [ebp-0xc]
 804974b:	0f 87 e6 fe ff ff    	ja     8049637 <img_invert+0x13>
 8049751:	b8 00 00 00 00       	mov    eax,0x0
 8049756:	83 c4 10             	add    esp,0x10
 8049759:	5b                   	pop    ebx
 804975a:	5d                   	pop    ebp
 804975b:	c3                   	ret    

0804975c <img_fliph>:
 804975c:	55                   	push   ebp
 804975d:	89 e5                	mov    ebp,esp
 804975f:	53                   	push   ebx
 8049760:	83 ec 24             	sub    esp,0x24
 8049763:	8b 45 08             	mov    eax,DWORD PTR [ebp+0x8]
 8049766:	8b 00                	mov    eax,DWORD PTR [eax]
 8049768:	8b 10                	mov    edx,DWORD PTR [eax]
 804976a:	8b 45 08             	mov    eax,DWORD PTR [ebp+0x8]
 804976d:	8b 00                	mov    eax,DWORD PTR [eax]
 804976f:	8b 40 04             	mov    eax,DWORD PTR [eax+0x4]
 8049772:	0f af d0             	imul   edx,eax
 8049775:	89 d0                	mov    eax,edx
 8049777:	01 c0                	add    eax,eax
 8049779:	01 d0                	add    eax,edx
 804977b:	89 04 24             	mov    DWORD PTR [esp],eax
 804977e:	e8 2c 38 00 00       	call   804cfaf <malloc>
 8049783:	89 45 ec             	mov    DWORD PTR [ebp-0x14],eax
 8049786:	83 7d ec 00          	cmp    DWORD PTR [ebp-0x14],0x0
 804978a:	75 16                	jne    80497a2 <img_fliph+0x46>
 804978c:	c7 04 24 f7 e3 04 08 	mov    DWORD PTR [esp],0x804e3f7
 8049793:	e8 38 f2 ff ff       	call   80489d0 <perror@plt>
 8049798:	b8 ff ff ff ff       	mov    eax,0xffffffff
 804979d:	e9 a2 00 00 00       	jmp    8049844 <img_fliph+0xe8>
 80497a2:	c7 45 f0 00 00 00 00 	mov    DWORD PTR [ebp-0x10],0x0
 80497a9:	eb 6c                	jmp    8049817 <img_fliph+0xbb>
 80497ab:	c7 45 f4 00 00 00 00 	mov    DWORD PTR [ebp-0xc],0x0
 80497b2:	eb 53                	jmp    8049807 <img_fliph+0xab>
 80497b4:	8b 45 f0             	mov    eax,DWORD PTR [ebp-0x10]
 80497b7:	8d 50 01             	lea    edx,[eax+0x1]
 80497ba:	8b 45 08             	mov    eax,DWORD PTR [ebp+0x8]
 80497bd:	8b 00                	mov    eax,DWORD PTR [eax]
 80497bf:	8b 00                	mov    eax,DWORD PTR [eax]
 80497c1:	0f af c2             	imul   eax,edx
 80497c4:	89 c2                	mov    edx,eax
 80497c6:	2b 55 f4             	sub    edx,DWORD PTR [ebp-0xc]
 80497c9:	89 d0                	mov    eax,edx
 80497cb:	01 c0                	add    eax,eax
 80497cd:	01 c2                	add    edx,eax
 80497cf:	8b 45 ec             	mov    eax,DWORD PTR [ebp-0x14]
 80497d2:	01 c2                	add    edx,eax
 80497d4:	8b 45 08             	mov    eax,DWORD PTR [ebp+0x8]
 80497d7:	8b 00                	mov    eax,DWORD PTR [eax]
 80497d9:	8b 58 08             	mov    ebx,DWORD PTR [eax+0x8]
 80497dc:	8b 45 08             	mov    eax,DWORD PTR [ebp+0x8]
 80497df:	8b 00                	mov    eax,DWORD PTR [eax]
 80497e1:	8b 00                	mov    eax,DWORD PTR [eax]
 80497e3:	89 c1                	mov    ecx,eax
 80497e5:	0f af 4d f0          	imul   ecx,DWORD PTR [ebp-0x10]
 80497e9:	8b 45 f4             	mov    eax,DWORD PTR [ebp-0xc]
 80497ec:	01 c1                	add    ecx,eax
 80497ee:	89 c8                	mov    eax,ecx
 80497f0:	01 c0                	add    eax,eax
 80497f2:	01 c8                	add    eax,ecx
 80497f4:	01 d8                	add    eax,ebx
 80497f6:	0f b7 08             	movzx  ecx,WORD PTR [eax]
 80497f9:	66 89 0a             	mov    WORD PTR [edx],cx
 80497fc:	0f b6 40 02          	movzx  eax,BYTE PTR [eax+0x2]
 8049800:	88 42 02             	mov    BYTE PTR [edx+0x2],al
 8049803:	83 45 f4 01          	add    DWORD PTR [ebp-0xc],0x1
 8049807:	8b 45 08             	mov    eax,DWORD PTR [ebp+0x8]
 804980a:	8b 00                	mov    eax,DWORD PTR [eax]
 804980c:	8b 00                	mov    eax,DWORD PTR [eax]
 804980e:	3b 45 f4             	cmp    eax,DWORD PTR [ebp-0xc]
 8049811:	77 a1                	ja     80497b4 <img_fliph+0x58>
 8049813:	83 45 f0 01          	add    DWORD PTR [ebp-0x10],0x1
 8049817:	8b 45 08             	mov    eax,DWORD PTR [ebp+0x8]
 804981a:	8b 00                	mov    eax,DWORD PTR [eax]
 804981c:	8b 40 04             	mov    eax,DWORD PTR [eax+0x4]
 804981f:	3b 45 f0             	cmp    eax,DWORD PTR [ebp-0x10]
 8049822:	77 87                	ja     80497ab <img_fliph+0x4f>
 8049824:	8b 45 08             	mov    eax,DWORD PTR [ebp+0x8]
 8049827:	8b 00                	mov    eax,DWORD PTR [eax]
 8049829:	8b 40 08             	mov    eax,DWORD PTR [eax+0x8]
 804982c:	89 04 24             	mov    DWORD PTR [esp],eax
 804982f:	e8 2e 3c 00 00       	call   804d462 <free>
 8049834:	8b 45 08             	mov    eax,DWORD PTR [ebp+0x8]
 8049837:	8b 00                	mov    eax,DWORD PTR [eax]
 8049839:	8b 55 ec             	mov    edx,DWORD PTR [ebp-0x14]
 804983c:	89 50 08             	mov    DWORD PTR [eax+0x8],edx
 804983f:	b8 00 00 00 00       	mov    eax,0x0
 8049844:	83 c4 24             	add    esp,0x24
 8049847:	5b                   	pop    ebx
 8049848:	5d                   	pop    ebp
 8049849:	c3                   	ret    
 804984a:	90                   	nop
 804984b:	90                   	nop

0804984c <img_flipv>:
 804984c:	55                   	push   ebp
 804984d:	89 e5                	mov    ebp,esp
 804984f:	53                   	push   ebx
 8049850:	83 ec 10             	sub    esp,0x10
 8049853:	c7 45 f4 00 00 00 00 	mov    DWORD PTR [ebp-0xc],0x0
 804985a:	e9 ea 00 00 00       	jmp    8049949 <img_flipv+0xfd>
 804985f:	c7 45 f8 00 00 00 00 	mov    DWORD PTR [ebp-0x8],0x0
 8049866:	e9 ca 00 00 00       	jmp    8049935 <img_flipv+0xe9>
 804986b:	8b 45 08             	mov    eax,DWORD PTR [ebp+0x8]
 804986e:	8b 00                	mov    eax,DWORD PTR [eax]
 8049870:	8b 48 08             	mov    ecx,DWORD PTR [eax+0x8]
 8049873:	8b 45 08             	mov    eax,DWORD PTR [ebp+0x8]
 8049876:	8b 00                	mov    eax,DWORD PTR [eax]
 8049878:	8b 00                	mov    eax,DWORD PTR [eax]
 804987a:	89 c2                	mov    edx,eax
 804987c:	0f af 55 f4          	imul   edx,DWORD PTR [ebp-0xc]
 8049880:	8b 45 f8             	mov    eax,DWORD PTR [ebp-0x8]
 8049883:	01 c2                	add    edx,eax
 8049885:	89 d0                	mov    eax,edx
 8049887:	01 c0                	add    eax,eax
 8049889:	01 d0                	add    eax,edx
 804988b:	01 c8                	add    eax,ecx
 804988d:	0f b7 10             	movzx  edx,WORD PTR [eax]
 8049890:	66 89 55 f1          	mov    WORD PTR [ebp-0xf],dx
 8049894:	0f b6 40 02          	movzx  eax,BYTE PTR [eax+0x2]
 8049898:	88 45 f3             	mov    BYTE PTR [ebp-0xd],al
 804989b:	8b 45 08             	mov    eax,DWORD PTR [ebp+0x8]
 804989e:	8b 00                	mov    eax,DWORD PTR [eax]
 80498a0:	8b 48 08             	mov    ecx,DWORD PTR [eax+0x8]
 80498a3:	8b 45 08             	mov    eax,DWORD PTR [ebp+0x8]
 80498a6:	8b 00                	mov    eax,DWORD PTR [eax]
 80498a8:	8b 00                	mov    eax,DWORD PTR [eax]
 80498aa:	89 c2                	mov    edx,eax
 80498ac:	0f af 55 f4          	imul   edx,DWORD PTR [ebp-0xc]
 80498b0:	8b 45 f8             	mov    eax,DWORD PTR [ebp-0x8]
 80498b3:	01 c2                	add    edx,eax
 80498b5:	89 d0                	mov    eax,edx
 80498b7:	01 c0                	add    eax,eax
 80498b9:	01 d0                	add    eax,edx
 80498bb:	8d 14 01             	lea    edx,[ecx+eax*1]
 80498be:	8b 45 08             	mov    eax,DWORD PTR [ebp+0x8]
 80498c1:	8b 00                	mov    eax,DWORD PTR [eax]
 80498c3:	8b 58 08             	mov    ebx,DWORD PTR [eax+0x8]
 80498c6:	8b 45 08             	mov    eax,DWORD PTR [ebp+0x8]
 80498c9:	8b 00                	mov    eax,DWORD PTR [eax]
 80498cb:	8b 40 04             	mov    eax,DWORD PTR [eax+0x4]
 80498ce:	89 c1                	mov    ecx,eax
 80498d0:	2b 4d f4             	sub    ecx,DWORD PTR [ebp-0xc]
 80498d3:	8b 45 08             	mov    eax,DWORD PTR [ebp+0x8]
 80498d6:	8b 00                	mov    eax,DWORD PTR [eax]
 80498d8:	8b 00                	mov    eax,DWORD PTR [eax]
 80498da:	0f af c8             	imul   ecx,eax
 80498dd:	8b 45 f8             	mov    eax,DWORD PTR [ebp-0x8]
 80498e0:	01 c1                	add    ecx,eax
 80498e2:	89 c8                	mov    eax,ecx
 80498e4:	01 c0                	add    eax,eax
 80498e6:	01 c8                	add    eax,ecx
 80498e8:	01 d8                	add    eax,ebx
 80498ea:	0f b7 08             	movzx  ecx,WORD PTR [eax]
 80498ed:	66 89 0a             	mov    WORD PTR [edx],cx
 80498f0:	0f b6 40 02          	movzx  eax,BYTE PTR [eax+0x2]
 80498f4:	88 42 02             	mov    BYTE PTR [edx+0x2],al
 80498f7:	8b 45 08             	mov    eax,DWORD PTR [ebp+0x8]
 80498fa:	8b 00                	mov    eax,DWORD PTR [eax]
 80498fc:	8b 48 08             	mov    ecx,DWORD PTR [eax+0x8]
 80498ff:	8b 45 08             	mov    eax,DWORD PTR [ebp+0x8]
 8049902:	8b 00                	mov    eax,DWORD PTR [eax]
 8049904:	8b 40 04             	mov    eax,DWORD PTR [eax+0x4]
 8049907:	89 c2                	mov    edx,eax
 8049909:	2b 55 f4             	sub    edx,DWORD PTR [ebp-0xc]
 804990c:	8b 45 08             	mov    eax,DWORD PTR [ebp+0x8]
 804990f:	8b 00                	mov    eax,DWORD PTR [eax]
 8049911:	8b 00                	mov    eax,DWORD PTR [eax]
 8049913:	0f af d0             	imul   edx,eax
 8049916:	8b 45 f8             	mov    eax,DWORD PTR [ebp-0x8]
 8049919:	01 c2                	add    edx,eax
 804991b:	89 d0                	mov    eax,edx
 804991d:	01 c0                	add    eax,eax
 804991f:	01 d0                	add    eax,edx
 8049921:	01 c8                	add    eax,ecx
 8049923:	0f b7 55 f1          	movzx  edx,WORD PTR [ebp-0xf]
 8049927:	66 89 10             	mov    WORD PTR [eax],dx
 804992a:	0f b6 55 f3          	movzx  edx,BYTE PTR [ebp-0xd]
 804992e:	88 50 02             	mov    BYTE PTR [eax+0x2],dl
 8049931:	83 45 f8 01          	add    DWORD PTR [ebp-0x8],0x1
 8049935:	8b 45 08             	mov    eax,DWORD PTR [ebp+0x8]
 8049938:	8b 00                	mov    eax,DWORD PTR [eax]
 804993a:	8b 00                	mov    eax,DWORD PTR [eax]
 804993c:	3b 45 f8             	cmp    eax,DWORD PTR [ebp-0x8]
 804993f:	0f 87 26 ff ff ff    	ja     804986b <img_flipv+0x1f>
 8049945:	83 45 f4 01          	add    DWORD PTR [ebp-0xc],0x1
 8049949:	8b 45 08             	mov    eax,DWORD PTR [ebp+0x8]
 804994c:	8b 00                	mov    eax,DWORD PTR [eax]
 804994e:	8b 40 04             	mov    eax,DWORD PTR [eax+0x4]
 8049951:	d1 e8                	shr    eax,1
 8049953:	3b 45 f4             	cmp    eax,DWORD PTR [ebp-0xc]
 8049956:	0f 87 03 ff ff ff    	ja     804985f <img_flipv+0x13>
 804995c:	b8 00 00 00 00       	mov    eax,0x0
 8049961:	83 c4 10             	add    esp,0x10
 8049964:	5b                   	pop    ebx
 8049965:	5d                   	pop    ebp
 8049966:	c3                   	ret    
 8049967:	90                   	nop

08049968 <img_bw>:
 8049968:	55                   	push   ebp
 8049969:	89 e5                	mov    ebp,esp
 804996b:	53                   	push   ebx
 804996c:	83 ec 14             	sub    esp,0x14
 804996f:	c7 45 f4 00 00 00 00 	mov    DWORD PTR [ebp-0xc],0x0
 8049976:	e9 37 01 00 00       	jmp    8049ab2 <img_bw+0x14a>
 804997b:	c7 45 f8 00 00 00 00 	mov    DWORD PTR [ebp-0x8],0x0
 8049982:	e9 17 01 00 00       	jmp    8049a9e <img_bw+0x136>
 8049987:	8b 45 08             	mov    eax,DWORD PTR [ebp+0x8]
 804998a:	8b 00                	mov    eax,DWORD PTR [eax]
 804998c:	8b 48 08             	mov    ecx,DWORD PTR [eax+0x8]
 804998f:	8b 45 08             	mov    eax,DWORD PTR [ebp+0x8]
 8049992:	8b 00                	mov    eax,DWORD PTR [eax]
 8049994:	8b 00                	mov    eax,DWORD PTR [eax]
 8049996:	89 c2                	mov    edx,eax
 8049998:	0f af 55 f4          	imul   edx,DWORD PTR [ebp-0xc]
 804999c:	8b 45 f8             	mov    eax,DWORD PTR [ebp-0x8]
 804999f:	01 c2                	add    edx,eax
 80499a1:	89 d0                	mov    eax,edx
 80499a3:	01 c0                	add    eax,eax
 80499a5:	01 d0                	add    eax,edx
 80499a7:	01 c8                	add    eax,ecx
 80499a9:	0f b6 40 02          	movzx  eax,BYTE PTR [eax+0x2]
 80499ad:	0f b6 c8             	movzx  ecx,al
 80499b0:	8b 45 08             	mov    eax,DWORD PTR [ebp+0x8]
 80499b3:	8b 00                	mov    eax,DWORD PTR [eax]
 80499b5:	8b 58 08             	mov    ebx,DWORD PTR [eax+0x8]
 80499b8:	8b 45 08             	mov    eax,DWORD PTR [ebp+0x8]
 80499bb:	8b 00                	mov    eax,DWORD PTR [eax]
 80499bd:	8b 00                	mov    eax,DWORD PTR [eax]
 80499bf:	89 c2                	mov    edx,eax
 80499c1:	0f af 55 f4          	imul   edx,DWORD PTR [ebp-0xc]
 80499c5:	8b 45 f8             	mov    eax,DWORD PTR [ebp-0x8]
 80499c8:	01 c2                	add    edx,eax
 80499ca:	89 d0                	mov    eax,edx
 80499cc:	01 c0                	add    eax,eax
 80499ce:	01 d0                	add    eax,edx
 80499d0:	01 d8                	add    eax,ebx
 80499d2:	0f b6 40 01          	movzx  eax,BYTE PTR [eax+0x1]
 80499d6:	0f b6 c0             	movzx  eax,al
 80499d9:	8d 1c 01             	lea    ebx,[ecx+eax*1]
 80499dc:	8b 45 08             	mov    eax,DWORD PTR [ebp+0x8]
 80499df:	8b 00                	mov    eax,DWORD PTR [eax]
 80499e1:	8b 48 08             	mov    ecx,DWORD PTR [eax+0x8]
 80499e4:	8b 45 08             	mov    eax,DWORD PTR [ebp+0x8]
 80499e7:	8b 00                	mov    eax,DWORD PTR [eax]
 80499e9:	8b 00                	mov    eax,DWORD PTR [eax]
 80499eb:	89 c2                	mov    edx,eax
 80499ed:	0f af 55 f4          	imul   edx,DWORD PTR [ebp-0xc]
 80499f1:	8b 45 f8             	mov    eax,DWORD PTR [ebp-0x8]
 80499f4:	01 c2                	add    edx,eax
 80499f6:	89 d0                	mov    eax,edx
 80499f8:	01 c0                	add    eax,eax
 80499fa:	01 d0                	add    eax,edx
 80499fc:	01 c8                	add    eax,ecx
 80499fe:	0f b6 00             	movzx  eax,BYTE PTR [eax]
 8049a01:	0f b6 c0             	movzx  eax,al
 8049a04:	01 d8                	add    eax,ebx
 8049a06:	89 45 f0             	mov    DWORD PTR [ebp-0x10],eax
 8049a09:	8b 45 f0             	mov    eax,DWORD PTR [ebp-0x10]
 8049a0c:	89 45 e8             	mov    DWORD PTR [ebp-0x18],eax
 8049a0f:	ba ab aa aa aa       	mov    edx,0xaaaaaaab
 8049a14:	8b 45 e8             	mov    eax,DWORD PTR [ebp-0x18]
 8049a17:	f7 e2                	mul    edx
 8049a19:	89 d0                	mov    eax,edx
 8049a1b:	d1 e8                	shr    eax,1
 8049a1d:	89 45 f0             	mov    DWORD PTR [ebp-0x10],eax
 8049a20:	8b 45 08             	mov    eax,DWORD PTR [ebp+0x8]
 8049a23:	8b 00                	mov    eax,DWORD PTR [eax]
 8049a25:	8b 48 08             	mov    ecx,DWORD PTR [eax+0x8]
 8049a28:	8b 45 08             	mov    eax,DWORD PTR [ebp+0x8]
 8049a2b:	8b 00                	mov    eax,DWORD PTR [eax]
 8049a2d:	8b 00                	mov    eax,DWORD PTR [eax]
 8049a2f:	89 c2                	mov    edx,eax
 8049a31:	0f af 55 f4          	imul   edx,DWORD PTR [ebp-0xc]
 8049a35:	8b 45 f8             	mov    eax,DWORD PTR [ebp-0x8]
 8049a38:	01 c2                	add    edx,eax
 8049a3a:	89 d0                	mov    eax,edx
 8049a3c:	01 c0                	add    eax,eax
 8049a3e:	01 d0                	add    eax,edx
 8049a40:	8d 14 01             	lea    edx,[ecx+eax*1]
 8049a43:	8b 45 f0             	mov    eax,DWORD PTR [ebp-0x10]
 8049a46:	88 42 02             	mov    BYTE PTR [edx+0x2],al
 8049a49:	8b 45 08             	mov    eax,DWORD PTR [ebp+0x8]
 8049a4c:	8b 00                	mov    eax,DWORD PTR [eax]
 8049a4e:	8b 48 08             	mov    ecx,DWORD PTR [eax+0x8]
 8049a51:	8b 45 08             	mov    eax,DWORD PTR [ebp+0x8]
 8049a54:	8b 00                	mov    eax,DWORD PTR [eax]
 8049a56:	8b 00                	mov    eax,DWORD PTR [eax]
 8049a58:	89 c2                	mov    edx,eax
 8049a5a:	0f af 55 f4          	imul   edx,DWORD PTR [ebp-0xc]
 8049a5e:	8b 45 f8             	mov    eax,DWORD PTR [ebp-0x8]
 8049a61:	01 c2                	add    edx,eax
 8049a63:	89 d0                	mov    eax,edx
 8049a65:	01 c0                	add    eax,eax
 8049a67:	01 d0                	add    eax,edx
 8049a69:	8d 14 01             	lea    edx,[ecx+eax*1]
 8049a6c:	8b 45 f0             	mov    eax,DWORD PTR [ebp-0x10]
 8049a6f:	88 42 01             	mov    BYTE PTR [edx+0x1],al
 8049a72:	8b 45 08             	mov    eax,DWORD PTR [ebp+0x8]
 8049a75:	8b 00                	mov    eax,DWORD PTR [eax]
 8049a77:	8b 48 08             	mov    ecx,DWORD PTR [eax+0x8]
 8049a7a:	8b 45 08             	mov    eax,DWORD PTR [ebp+0x8]
 8049a7d:	8b 00                	mov    eax,DWORD PTR [eax]
 8049a7f:	8b 00                	mov    eax,DWORD PTR [eax]
 8049a81:	89 c2                	mov    edx,eax
 8049a83:	0f af 55 f4          	imul   edx,DWORD PTR [ebp-0xc]
 8049a87:	8b 45 f8             	mov    eax,DWORD PTR [ebp-0x8]
 8049a8a:	01 c2                	add    edx,eax
 8049a8c:	89 d0                	mov    eax,edx
 8049a8e:	01 c0                	add    eax,eax
 8049a90:	01 d0                	add    eax,edx
 8049a92:	8d 14 01             	lea    edx,[ecx+eax*1]
 8049a95:	8b 45 f0             	mov    eax,DWORD PTR [ebp-0x10]
 8049a98:	88 02                	mov    BYTE PTR [edx],al
 8049a9a:	83 45 f8 01          	add    DWORD PTR [ebp-0x8],0x1
 8049a9e:	8b 45 08             	mov    eax,DWORD PTR [ebp+0x8]
 8049aa1:	8b 00                	mov    eax,DWORD PTR [eax]
 8049aa3:	8b 00                	mov    eax,DWORD PTR [eax]
 8049aa5:	3b 45 f8             	cmp    eax,DWORD PTR [ebp-0x8]
 8049aa8:	0f 87 d9 fe ff ff    	ja     8049987 <img_bw+0x1f>
 8049aae:	83 45 f4 01          	add    DWORD PTR [ebp-0xc],0x1
 8049ab2:	8b 45 08             	mov    eax,DWORD PTR [ebp+0x8]
 8049ab5:	8b 00                	mov    eax,DWORD PTR [eax]
 8049ab7:	8b 40 04             	mov    eax,DWORD PTR [eax+0x4]
 8049aba:	3b 45 f4             	cmp    eax,DWORD PTR [ebp-0xc]
 8049abd:	0f 87 b8 fe ff ff    	ja     804997b <img_bw+0x13>
 8049ac3:	b8 00 00 00 00       	mov    eax,0x0
 8049ac8:	83 c4 14             	add    esp,0x14
 8049acb:	5b                   	pop    ebx
 8049acc:	5d                   	pop    ebp
 8049acd:	c3                   	ret    
 8049ace:	90                   	nop
 8049acf:	90                   	nop

08049ad0 <img_font>:
 8049ad0:	55                   	push   ebp
 8049ad1:	89 e5                	mov    ebp,esp
 8049ad3:	53                   	push   ebx
 8049ad4:	83 ec 44             	sub    esp,0x44
 8049ad7:	8b 45 0c             	mov    eax,DWORD PTR [ebp+0xc]
 8049ada:	8b 00                	mov    eax,DWORD PTR [eax]
 8049adc:	89 04 24             	mov    DWORD PTR [esp],eax
 8049adf:	e8 1c f0 ff ff       	call   8048b00 <atoi@plt>
 8049ae4:	89 45 e4             	mov    DWORD PTR [ebp-0x1c],eax
 8049ae7:	8b 45 08             	mov    eax,DWORD PTR [ebp+0x8]
 8049aea:	8b 00                	mov    eax,DWORD PTR [eax]
 8049aec:	8b 40 04             	mov    eax,DWORD PTR [eax+0x4]
 8049aef:	89 45 e0             	mov    DWORD PTR [ebp-0x20],eax
 8049af2:	8b 45 0c             	mov    eax,DWORD PTR [ebp+0xc]
 8049af5:	8b 40 04             	mov    eax,DWORD PTR [eax+0x4]
 8049af8:	89 45 dc             	mov    DWORD PTR [ebp-0x24],eax
 8049afb:	8b 45 e4             	mov    eax,DWORD PTR [ebp-0x1c]
 8049afe:	89 44 24 04          	mov    DWORD PTR [esp+0x4],eax
 8049b02:	c7 04 24 08 e4 04 08 	mov    DWORD PTR [esp],0x804e408
 8049b09:	e8 72 ee ff ff       	call   8048980 <printf@plt>
 8049b0e:	8b 45 e0             	mov    eax,DWORD PTR [ebp-0x20]
 8049b11:	89 44 24 04          	mov    DWORD PTR [esp+0x4],eax
 8049b15:	c7 04 24 1b e4 04 08 	mov    DWORD PTR [esp],0x804e41b
 8049b1c:	e8 5f ee ff ff       	call   8048980 <printf@plt>
 8049b21:	c7 04 24 30 e4 04 08 	mov    DWORD PTR [esp],0x804e430
 8049b28:	e8 d3 ee ff ff       	call   8048a00 <puts@plt>
 8049b2d:	c7 45 f4 00 00 00 00 	mov    DWORD PTR [ebp-0xc],0x0
 8049b34:	e9 e8 00 00 00       	jmp    8049c21 <img_font+0x151>
 8049b39:	c7 04 24 55 e4 04 08 	mov    DWORD PTR [esp],0x804e455
 8049b40:	e8 3b ee ff ff       	call   8048980 <printf@plt>
 8049b45:	8b 45 f4             	mov    eax,DWORD PTR [ebp-0xc]
 8049b48:	89 44 24 04          	mov    DWORD PTR [esp+0x4],eax
 8049b4c:	8b 45 dc             	mov    eax,DWORD PTR [ebp-0x24]
 8049b4f:	89 04 24             	mov    DWORD PTR [esp],eax
 8049b52:	e8 e9 ee ff ff       	call   8048a40 <strchr@plt>
 8049b57:	89 45 d8             	mov    DWORD PTR [ebp-0x28],eax
 8049b5a:	8b 55 d8             	mov    edx,DWORD PTR [ebp-0x28]
 8049b5d:	8b 45 dc             	mov    eax,DWORD PTR [ebp-0x24]
 8049b60:	89 d1                	mov    ecx,edx
 8049b62:	29 c1                	sub    ecx,eax
 8049b64:	89 c8                	mov    eax,ecx
 8049b66:	89 45 d4             	mov    DWORD PTR [ebp-0x2c],eax
 8049b69:	c7 45 f0 00 00 00 00 	mov    DWORD PTR [ebp-0x10],0x0
 8049b70:	e9 82 00 00 00       	jmp    8049bf7 <img_font+0x127>
 8049b75:	83 7d d8 00          	cmp    DWORD PTR [ebp-0x28],0x0
 8049b79:	74 06                	je     8049b81 <img_font+0xb1>
 8049b7b:	83 7d f4 00          	cmp    DWORD PTR [ebp-0xc],0x0
 8049b7f:	75 08                	jne    8049b89 <img_font+0xb9>
 8049b81:	66 c7 45 ea ff ff    	mov    WORD PTR [ebp-0x16],0xffff
 8049b87:	eb 56                	jmp    8049bdf <img_font+0x10f>
 8049b89:	66 c7 45 ea 00 00    	mov    WORD PTR [ebp-0x16],0x0
 8049b8f:	8b 45 e0             	mov    eax,DWORD PTR [ebp-0x20]
 8049b92:	89 45 ec             	mov    DWORD PTR [ebp-0x14],eax
 8049b95:	eb 42                	jmp    8049bd9 <img_font+0x109>
 8049b97:	66 d1 65 ea          	shl    WORD PTR [ebp-0x16],1
 8049b9b:	8b 45 08             	mov    eax,DWORD PTR [ebp+0x8]
 8049b9e:	8b 00                	mov    eax,DWORD PTR [eax]
 8049ba0:	8b 48 08             	mov    ecx,DWORD PTR [eax+0x8]
 8049ba3:	8b 45 e4             	mov    eax,DWORD PTR [ebp-0x1c]
 8049ba6:	0f af 45 d4          	imul   eax,DWORD PTR [ebp-0x2c]
 8049baa:	89 c2                	mov    edx,eax
 8049bac:	8b 45 08             	mov    eax,DWORD PTR [ebp+0x8]
 8049baf:	8b 00                	mov    eax,DWORD PTR [eax]
 8049bb1:	8b 18                	mov    ebx,DWORD PTR [eax]
 8049bb3:	8b 45 ec             	mov    eax,DWORD PTR [ebp-0x14]
 8049bb6:	0f af c3             	imul   eax,ebx
 8049bb9:	01 c2                	add    edx,eax
 8049bbb:	8b 45 f0             	mov    eax,DWORD PTR [ebp-0x10]
 8049bbe:	01 c2                	add    edx,eax
 8049bc0:	89 d0                	mov    eax,edx
 8049bc2:	01 c0                	add    eax,eax
 8049bc4:	01 d0                	add    eax,edx
 8049bc6:	01 c8                	add    eax,ecx
 8049bc8:	0f b6 40 02          	movzx  eax,BYTE PTR [eax+0x2]
 8049bcc:	84 c0                	test   al,al
 8049bce:	78 05                	js     8049bd5 <img_font+0x105>
 8049bd0:	66 83 4d ea 01       	or     WORD PTR [ebp-0x16],0x1
 8049bd5:	83 6d ec 01          	sub    DWORD PTR [ebp-0x14],0x1
 8049bd9:	83 7d ec 00          	cmp    DWORD PTR [ebp-0x14],0x0
 8049bdd:	79 b8                	jns    8049b97 <img_font+0xc7>
 8049bdf:	0f b7 45 ea          	movzx  eax,WORD PTR [ebp-0x16]
 8049be3:	89 44 24 04          	mov    DWORD PTR [esp+0x4],eax
 8049be7:	c7 04 24 58 e4 04 08 	mov    DWORD PTR [esp],0x804e458
 8049bee:	e8 8d ed ff ff       	call   8048980 <printf@plt>
 8049bf3:	83 45 f0 01          	add    DWORD PTR [ebp-0x10],0x1
 8049bf7:	8b 45 f0             	mov    eax,DWORD PTR [ebp-0x10]
 8049bfa:	3b 45 e4             	cmp    eax,DWORD PTR [ebp-0x1c]
 8049bfd:	0f 8c 72 ff ff ff    	jl     8049b75 <img_font+0xa5>
 8049c03:	8b 45 d4             	mov    eax,DWORD PTR [ebp-0x2c]
 8049c06:	89 44 24 08          	mov    DWORD PTR [esp+0x8],eax
 8049c0a:	8b 45 f4             	mov    eax,DWORD PTR [ebp-0xc]
 8049c0d:	89 44 24 04          	mov    DWORD PTR [esp+0x4],eax
 8049c11:	c7 04 24 61 e4 04 08 	mov    DWORD PTR [esp],0x804e461
 8049c18:	e8 63 ed ff ff       	call   8048980 <printf@plt>
 8049c1d:	83 45 f4 01          	add    DWORD PTR [ebp-0xc],0x1
 8049c21:	81 7d f4 ff 00 00 00 	cmp    DWORD PTR [ebp-0xc],0xff
 8049c28:	0f 8e 0b ff ff ff    	jle    8049b39 <img_font+0x69>
 8049c2e:	c7 04 24 74 e4 04 08 	mov    DWORD PTR [esp],0x804e474
 8049c35:	e8 c6 ed ff ff       	call   8048a00 <puts@plt>
 8049c3a:	b8 00 00 00 00       	mov    eax,0x0
 8049c3f:	83 c4 44             	add    esp,0x44
 8049c42:	5b                   	pop    ebx
 8049c43:	5d                   	pop    ebp
 8049c44:	c3                   	ret    
 8049c45:	90                   	nop
 8049c46:	90                   	nop
 8049c47:	90                   	nop

08049c48 <img_text>:
 8049c48:	55                   	push   ebp
 8049c49:	89 e5                	mov    ebp,esp
 8049c4b:	53                   	push   ebx
 8049c4c:	83 ec 34             	sub    esp,0x34
 8049c4f:	8b 45 0c             	mov    eax,DWORD PTR [ebp+0xc]
 8049c52:	8b 00                	mov    eax,DWORD PTR [eax]
 8049c54:	85 c0                	test   eax,eax
 8049c56:	74 3c                	je     8049c94 <img_text+0x4c>
 8049c58:	8b 45 0c             	mov    eax,DWORD PTR [ebp+0xc]
 8049c5b:	83 c0 04             	add    eax,0x4
 8049c5e:	8b 00                	mov    eax,DWORD PTR [eax]
 8049c60:	85 c0                	test   eax,eax
 8049c62:	74 30                	je     8049c94 <img_text+0x4c>
 8049c64:	8b 45 0c             	mov    eax,DWORD PTR [ebp+0xc]
 8049c67:	83 c0 08             	add    eax,0x8
 8049c6a:	8b 00                	mov    eax,DWORD PTR [eax]
 8049c6c:	85 c0                	test   eax,eax
 8049c6e:	74 24                	je     8049c94 <img_text+0x4c>
 8049c70:	8b 45 0c             	mov    eax,DWORD PTR [ebp+0xc]
 8049c73:	83 c0 0c             	add    eax,0xc
 8049c76:	8b 00                	mov    eax,DWORD PTR [eax]
 8049c78:	85 c0                	test   eax,eax
 8049c7a:	74 18                	je     8049c94 <img_text+0x4c>
 8049c7c:	8b 45 0c             	mov    eax,DWORD PTR [ebp+0xc]
 8049c7f:	83 c0 10             	add    eax,0x10
 8049c82:	8b 00                	mov    eax,DWORD PTR [eax]
 8049c84:	85 c0                	test   eax,eax
 8049c86:	74 0c                	je     8049c94 <img_text+0x4c>
 8049c88:	8b 45 0c             	mov    eax,DWORD PTR [ebp+0xc]
 8049c8b:	83 c0 14             	add    eax,0x14
 8049c8e:	8b 00                	mov    eax,DWORD PTR [eax]
 8049c90:	85 c0                	test   eax,eax
 8049c92:	75 2f                	jne    8049cc3 <img_text+0x7b>
 8049c94:	a1 40 0b 05 08       	mov    eax,ds:0x8050b40
 8049c99:	89 44 24 0c          	mov    DWORD PTR [esp+0xc],eax
 8049c9d:	c7 44 24 08 1e 00 00 	mov    DWORD PTR [esp+0x8],0x1e
 8049ca4:	00 
 8049ca5:	c7 44 24 04 01 00 00 	mov    DWORD PTR [esp+0x4],0x1
 8049cac:	00 
 8049cad:	c7 04 24 80 f0 04 08 	mov    DWORD PTR [esp],0x804f080
 8049cb4:	e8 27 ed ff ff       	call   80489e0 <fwrite@plt>
 8049cb9:	b8 ff ff ff ff       	mov    eax,0xffffffff
 8049cbe:	e9 79 01 00 00       	jmp    8049e3c <img_text+0x1f4>
 8049cc3:	8b 45 0c             	mov    eax,DWORD PTR [ebp+0xc]
 8049cc6:	8b 00                	mov    eax,DWORD PTR [eax]
 8049cc8:	89 04 24             	mov    DWORD PTR [esp],eax
 8049ccb:	e8 30 ee ff ff       	call   8048b00 <atoi@plt>
 8049cd0:	89 45 ec             	mov    DWORD PTR [ebp-0x14],eax
 8049cd3:	8b 45 0c             	mov    eax,DWORD PTR [ebp+0xc]
 8049cd6:	83 c0 04             	add    eax,0x4
 8049cd9:	8b 00                	mov    eax,DWORD PTR [eax]
 8049cdb:	89 04 24             	mov    DWORD PTR [esp],eax
 8049cde:	e8 1d ee ff ff       	call   8048b00 <atoi@plt>
 8049ce3:	89 45 e0             	mov    DWORD PTR [ebp-0x20],eax
 8049ce6:	8b 45 0c             	mov    eax,DWORD PTR [ebp+0xc]
 8049ce9:	83 c0 14             	add    eax,0x14
 8049cec:	8b 00                	mov    eax,DWORD PTR [eax]
 8049cee:	89 04 24             	mov    DWORD PTR [esp],eax
 8049cf1:	e8 5a ed ff ff       	call   8048a50 <strlen@plt>
 8049cf6:	89 04 24             	mov    DWORD PTR [esp],eax
 8049cf9:	e8 b1 32 00 00       	call   804cfaf <malloc>
 8049cfe:	89 45 dc             	mov    DWORD PTR [ebp-0x24],eax
 8049d01:	c7 04 24 03 00 00 00 	mov    DWORD PTR [esp],0x3
 8049d08:	e8 a2 32 00 00       	call   804cfaf <malloc>
 8049d0d:	89 45 d8             	mov    DWORD PTR [ebp-0x28],eax
 8049d10:	8b 45 0c             	mov    eax,DWORD PTR [ebp+0xc]
 8049d13:	83 c0 14             	add    eax,0x14
 8049d16:	8b 00                	mov    eax,DWORD PTR [eax]
 8049d18:	89 44 24 04          	mov    DWORD PTR [esp+0x4],eax
 8049d1c:	8b 45 dc             	mov    eax,DWORD PTR [ebp-0x24]
 8049d1f:	89 04 24             	mov    DWORD PTR [esp],eax
 8049d22:	e8 c9 ed ff ff       	call   8048af0 <sprintf@plt>
 8049d27:	8b 45 0c             	mov    eax,DWORD PTR [ebp+0xc]
 8049d2a:	83 c0 08             	add    eax,0x8
 8049d2d:	8b 00                	mov    eax,DWORD PTR [eax]
 8049d2f:	89 04 24             	mov    DWORD PTR [esp],eax
 8049d32:	e8 c9 ed ff ff       	call   8048b00 <atoi@plt>
 8049d37:	89 c2                	mov    edx,eax
 8049d39:	8b 45 d8             	mov    eax,DWORD PTR [ebp-0x28]
 8049d3c:	88 50 02             	mov    BYTE PTR [eax+0x2],dl
 8049d3f:	8b 45 0c             	mov    eax,DWORD PTR [ebp+0xc]
 8049d42:	83 c0 0c             	add    eax,0xc
 8049d45:	8b 00                	mov    eax,DWORD PTR [eax]
 8049d47:	89 04 24             	mov    DWORD PTR [esp],eax
 8049d4a:	e8 b1 ed ff ff       	call   8048b00 <atoi@plt>
 8049d4f:	89 c2                	mov    edx,eax
 8049d51:	8b 45 d8             	mov    eax,DWORD PTR [ebp-0x28]
 8049d54:	88 50 01             	mov    BYTE PTR [eax+0x1],dl
 8049d57:	8b 45 0c             	mov    eax,DWORD PTR [ebp+0xc]
 8049d5a:	83 c0 10             	add    eax,0x10
 8049d5d:	8b 00                	mov    eax,DWORD PTR [eax]
 8049d5f:	89 04 24             	mov    DWORD PTR [esp],eax
 8049d62:	e8 99 ed ff ff       	call   8048b00 <atoi@plt>
 8049d67:	89 c2                	mov    edx,eax
 8049d69:	8b 45 d8             	mov    eax,DWORD PTR [ebp-0x28]
 8049d6c:	88 10                	mov    BYTE PTR [eax],dl
 8049d6e:	8b 45 dc             	mov    eax,DWORD PTR [ebp-0x24]
 8049d71:	89 45 e8             	mov    DWORD PTR [ebp-0x18],eax
 8049d74:	e9 a5 00 00 00       	jmp    8049e1e <img_text+0x1d6>
 8049d79:	c7 45 f4 00 00 00 00 	mov    DWORD PTR [ebp-0xc],0x0
 8049d80:	e9 87 00 00 00       	jmp    8049e0c <img_text+0x1c4>
 8049d85:	8b 45 e8             	mov    eax,DWORD PTR [ebp-0x18]
 8049d88:	0f b6 00             	movzx  eax,BYTE PTR [eax]
 8049d8b:	0f b6 d0             	movzx  edx,al
 8049d8e:	89 d0                	mov    eax,edx
 8049d90:	01 c0                	add    eax,eax
 8049d92:	01 d0                	add    eax,edx
 8049d94:	01 c0                	add    eax,eax
 8049d96:	8b 55 f4             	mov    edx,DWORD PTR [ebp-0xc]
 8049d99:	01 d0                	add    eax,edx
 8049d9b:	0f b7 84 00 80 e4 04 	movzx  eax,WORD PTR [eax+eax*1+0x804e480]
 8049da2:	08 
 8049da3:	66 89 45 e6          	mov    WORD PTR [ebp-0x1a],ax
 8049da7:	c7 45 f0 00 00 00 00 	mov    DWORD PTR [ebp-0x10],0x0
 8049dae:	eb 52                	jmp    8049e02 <img_text+0x1ba>
 8049db0:	0f b7 45 e6          	movzx  eax,WORD PTR [ebp-0x1a]
 8049db4:	83 e0 01             	and    eax,0x1
 8049db7:	85 c0                	test   eax,eax
 8049db9:	74 3f                	je     8049dfa <img_text+0x1b2>
 8049dbb:	8b 45 08             	mov    eax,DWORD PTR [ebp+0x8]
 8049dbe:	8b 00                	mov    eax,DWORD PTR [eax]
 8049dc0:	8b 48 08             	mov    ecx,DWORD PTR [eax+0x8]
 8049dc3:	8b 45 f0             	mov    eax,DWORD PTR [ebp-0x10]
 8049dc6:	8b 55 e0             	mov    edx,DWORD PTR [ebp-0x20]
 8049dc9:	01 d0                	add    eax,edx
 8049dcb:	89 c2                	mov    edx,eax
 8049dcd:	8b 45 08             	mov    eax,DWORD PTR [ebp+0x8]
 8049dd0:	8b 00                	mov    eax,DWORD PTR [eax]
 8049dd2:	8b 00                	mov    eax,DWORD PTR [eax]
 8049dd4:	0f af d0             	imul   edx,eax
 8049dd7:	8b 45 f4             	mov    eax,DWORD PTR [ebp-0xc]
 8049dda:	8b 5d ec             	mov    ebx,DWORD PTR [ebp-0x14]
 8049ddd:	01 d8                	add    eax,ebx
 8049ddf:	01 c2                	add    edx,eax
 8049de1:	89 d0                	mov    eax,edx
 8049de3:	01 c0                	add    eax,eax
 8049de5:	01 d0                	add    eax,edx
 8049de7:	8d 14 01             	lea    edx,[ecx+eax*1]
 8049dea:	8b 45 d8             	mov    eax,DWORD PTR [ebp-0x28]
 8049ded:	0f b7 08             	movzx  ecx,WORD PTR [eax]
 8049df0:	66 89 0a             	mov    WORD PTR [edx],cx
 8049df3:	0f b6 40 02          	movzx  eax,BYTE PTR [eax+0x2]
 8049df7:	88 42 02             	mov    BYTE PTR [edx+0x2],al
 8049dfa:	66 d1 6d e6          	shr    WORD PTR [ebp-0x1a],1
 8049dfe:	83 45 f0 01          	add    DWORD PTR [ebp-0x10],0x1
 8049e02:	83 7d f0 0b          	cmp    DWORD PTR [ebp-0x10],0xb
 8049e06:	7e a8                	jle    8049db0 <img_text+0x168>
 8049e08:	83 45 f4 01          	add    DWORD PTR [ebp-0xc],0x1
 8049e0c:	83 7d f4 05          	cmp    DWORD PTR [ebp-0xc],0x5
 8049e10:	0f 8e 6f ff ff ff    	jle    8049d85 <img_text+0x13d>
 8049e16:	83 45 e8 01          	add    DWORD PTR [ebp-0x18],0x1
 8049e1a:	83 45 ec 06          	add    DWORD PTR [ebp-0x14],0x6
 8049e1e:	8b 45 e8             	mov    eax,DWORD PTR [ebp-0x18]
 8049e21:	0f b6 00             	movzx  eax,BYTE PTR [eax]
 8049e24:	84 c0                	test   al,al
 8049e26:	0f 85 4d ff ff ff    	jne    8049d79 <img_text+0x131>
 8049e2c:	8b 45 dc             	mov    eax,DWORD PTR [ebp-0x24]
 8049e2f:	89 04 24             	mov    DWORD PTR [esp],eax
 8049e32:	e8 2b 36 00 00       	call   804d462 <free>
 8049e37:	b8 00 00 00 00       	mov    eax,0x0
 8049e3c:	83 c4 34             	add    esp,0x34
 8049e3f:	5b                   	pop    ebx
 8049e40:	5d                   	pop    ebp
 8049e41:	c3                   	ret    
 8049e42:	90                   	nop
 8049e43:	90                   	nop

08049e44 <segment_holding>:
 8049e44:	55                   	push   ebp
 8049e45:	89 e5                	mov    ebp,esp
 8049e47:	83 ec 10             	sub    esp,0x10
 8049e4a:	8b 45 08             	mov    eax,DWORD PTR [ebp+0x8]
 8049e4d:	05 bc 01 00 00       	add    eax,0x1bc
 8049e52:	89 45 fc             	mov    DWORD PTR [ebp-0x4],eax
 8049e55:	eb 01                	jmp    8049e58 <segment_holding+0x14>
 8049e57:	90                   	nop
 8049e58:	8b 45 fc             	mov    eax,DWORD PTR [ebp-0x4]
 8049e5b:	8b 00                	mov    eax,DWORD PTR [eax]
 8049e5d:	3b 45 0c             	cmp    eax,DWORD PTR [ebp+0xc]
 8049e60:	77 17                	ja     8049e79 <segment_holding+0x35>
 8049e62:	8b 45 fc             	mov    eax,DWORD PTR [ebp-0x4]
 8049e65:	8b 10                	mov    edx,DWORD PTR [eax]
 8049e67:	8b 45 fc             	mov    eax,DWORD PTR [ebp-0x4]
 8049e6a:	8b 40 04             	mov    eax,DWORD PTR [eax+0x4]
 8049e6d:	01 d0                	add    eax,edx
 8049e6f:	3b 45 0c             	cmp    eax,DWORD PTR [ebp+0xc]
 8049e72:	76 05                	jbe    8049e79 <segment_holding+0x35>
 8049e74:	8b 45 fc             	mov    eax,DWORD PTR [ebp-0x4]
 8049e77:	eb 14                	jmp    8049e8d <segment_holding+0x49>
 8049e79:	8b 45 fc             	mov    eax,DWORD PTR [ebp-0x4]
 8049e7c:	8b 40 08             	mov    eax,DWORD PTR [eax+0x8]
 8049e7f:	89 45 fc             	mov    DWORD PTR [ebp-0x4],eax
 8049e82:	83 7d fc 00          	cmp    DWORD PTR [ebp-0x4],0x0
 8049e86:	75 cf                	jne    8049e57 <segment_holding+0x13>
 8049e88:	b8 00 00 00 00       	mov    eax,0x0
 8049e8d:	c9                   	leave  
 8049e8e:	c3                   	ret    

08049e8f <has_segment_link>:
 8049e8f:	55                   	push   ebp
 8049e90:	89 e5                	mov    ebp,esp
 8049e92:	83 ec 10             	sub    esp,0x10
 8049e95:	8b 45 08             	mov    eax,DWORD PTR [ebp+0x8]
 8049e98:	05 bc 01 00 00       	add    eax,0x1bc
 8049e9d:	89 45 fc             	mov    DWORD PTR [ebp-0x4],eax
 8049ea0:	eb 01                	jmp    8049ea3 <has_segment_link+0x14>
 8049ea2:	90                   	nop
 8049ea3:	8b 45 0c             	mov    eax,DWORD PTR [ebp+0xc]
 8049ea6:	8b 00                	mov    eax,DWORD PTR [eax]
 8049ea8:	3b 45 fc             	cmp    eax,DWORD PTR [ebp-0x4]
 8049eab:	77 19                	ja     8049ec6 <has_segment_link+0x37>
 8049ead:	8b 45 0c             	mov    eax,DWORD PTR [ebp+0xc]
 8049eb0:	8b 10                	mov    edx,DWORD PTR [eax]
 8049eb2:	8b 45 0c             	mov    eax,DWORD PTR [ebp+0xc]
 8049eb5:	8b 40 04             	mov    eax,DWORD PTR [eax+0x4]
 8049eb8:	01 d0                	add    eax,edx
 8049eba:	3b 45 fc             	cmp    eax,DWORD PTR [ebp-0x4]
 8049ebd:	76 07                	jbe    8049ec6 <has_segment_link+0x37>
 8049ebf:	b8 01 00 00 00       	mov    eax,0x1
 8049ec4:	eb 14                	jmp    8049eda <has_segment_link+0x4b>
 8049ec6:	8b 45 fc             	mov    eax,DWORD PTR [ebp-0x4]
 8049ec9:	8b 40 08             	mov    eax,DWORD PTR [eax+0x8]
 8049ecc:	89 45 fc             	mov    DWORD PTR [ebp-0x4],eax
 8049ecf:	83 7d fc 00          	cmp    DWORD PTR [ebp-0x4],0x0
 8049ed3:	75 cd                	jne    8049ea2 <has_segment_link+0x13>
 8049ed5:	b8 00 00 00 00       	mov    eax,0x0
 8049eda:	c9                   	leave  
 8049edb:	c3                   	ret    

08049edc <init_mparams>:
 8049edc:	55                   	push   ebp
 8049edd:	89 e5                	mov    ebp,esp
 8049edf:	83 ec 28             	sub    esp,0x28
 8049ee2:	a1 60 0b 05 08       	mov    eax,ds:0x8050b60
 8049ee7:	85 c0                	test   eax,eax
 8049ee9:	0f 85 90 00 00 00    	jne    8049f7f <init_mparams+0xa3>
 8049eef:	c7 04 24 1e 00 00 00 	mov    DWORD PTR [esp],0x1e
 8049ef6:	e8 c5 ea ff ff       	call   80489c0 <sysconf@plt>
 8049efb:	89 45 f4             	mov    DWORD PTR [ebp-0xc],eax
 8049efe:	8b 45 f4             	mov    eax,DWORD PTR [ebp-0xc]
 8049f01:	89 45 f0             	mov    DWORD PTR [ebp-0x10],eax
 8049f04:	8b 45 f0             	mov    eax,DWORD PTR [ebp-0x10]
 8049f07:	83 e8 01             	sub    eax,0x1
 8049f0a:	23 45 f0             	and    eax,DWORD PTR [ebp-0x10]
 8049f0d:	85 c0                	test   eax,eax
 8049f0f:	75 0d                	jne    8049f1e <init_mparams+0x42>
 8049f11:	8b 45 f4             	mov    eax,DWORD PTR [ebp-0xc]
 8049f14:	83 e8 01             	sub    eax,0x1
 8049f17:	23 45 f4             	and    eax,DWORD PTR [ebp-0xc]
 8049f1a:	85 c0                	test   eax,eax
 8049f1c:	74 05                	je     8049f23 <init_mparams+0x47>
 8049f1e:	e8 fd eb ff ff       	call   8048b20 <abort@plt>
 8049f23:	8b 45 f0             	mov    eax,DWORD PTR [ebp-0x10]
 8049f26:	a3 68 0b 05 08       	mov    ds:0x8050b68,eax
 8049f2b:	8b 45 f4             	mov    eax,DWORD PTR [ebp-0xc]
 8049f2e:	a3 64 0b 05 08       	mov    ds:0x8050b64,eax
 8049f33:	c7 05 6c 0b 05 08 00 	mov    DWORD PTR ds:0x8050b6c,0x40000
 8049f3a:	00 04 00 
 8049f3d:	c7 05 70 0b 05 08 00 	mov    DWORD PTR ds:0x8050b70,0x200000
 8049f44:	00 20 00 
 8049f47:	c7 05 74 0b 05 08 01 	mov    DWORD PTR ds:0x8050b74,0x1
 8049f4e:	00 00 00 
 8049f51:	a1 74 0b 05 08       	mov    eax,ds:0x8050b74
 8049f56:	a3 38 0d 05 08       	mov    ds:0x8050d38,eax
 8049f5b:	c7 04 24 00 00 00 00 	mov    DWORD PTR [esp],0x0
 8049f62:	e8 39 ea ff ff       	call   80489a0 <time@plt>
 8049f67:	35 55 55 55 55       	xor    eax,0x55555555
 8049f6c:	89 45 ec             	mov    DWORD PTR [ebp-0x14],eax
 8049f6f:	83 4d ec 08          	or     DWORD PTR [ebp-0x14],0x8
 8049f73:	83 65 ec f8          	and    DWORD PTR [ebp-0x14],0xfffffff8
 8049f77:	8b 45 ec             	mov    eax,DWORD PTR [ebp-0x14]
 8049f7a:	a3 60 0b 05 08       	mov    ds:0x8050b60,eax
 8049f7f:	b8 01 00 00 00       	mov    eax,0x1
 8049f84:	c9                   	leave  
 8049f85:	c3                   	ret    

08049f86 <change_mparam>:
 8049f86:	55                   	push   ebp
 8049f87:	89 e5                	mov    ebp,esp
 8049f89:	83 ec 18             	sub    esp,0x18
 8049f8c:	a1 60 0b 05 08       	mov    eax,ds:0x8050b60
 8049f91:	85 c0                	test   eax,eax
 8049f93:	75 07                	jne    8049f9c <change_mparam+0x16>
 8049f95:	e8 42 ff ff ff       	call   8049edc <init_mparams>
 8049f9a:	85 c0                	test   eax,eax
 8049f9c:	83 7d 0c ff          	cmp    DWORD PTR [ebp+0xc],0xffffffff
 8049fa0:	74 05                	je     8049fa7 <change_mparam+0x21>
 8049fa2:	8b 45 0c             	mov    eax,DWORD PTR [ebp+0xc]
 8049fa5:	eb 05                	jmp    8049fac <change_mparam+0x26>
 8049fa7:	b8 ff ff ff ff       	mov    eax,0xffffffff
 8049fac:	89 45 f4             	mov    DWORD PTR [ebp-0xc],eax
 8049faf:	8b 45 08             	mov    eax,DWORD PTR [ebp+0x8]
 8049fb2:	83 f8 fe             	cmp    eax,0xfffffffe
 8049fb5:	74 1b                	je     8049fd2 <change_mparam+0x4c>
 8049fb7:	83 f8 ff             	cmp    eax,0xffffffff
 8049fba:	74 07                	je     8049fc3 <change_mparam+0x3d>
 8049fbc:	83 f8 fd             	cmp    eax,0xfffffffd
 8049fbf:	74 3e                	je     8049fff <change_mparam+0x79>
 8049fc1:	eb 4b                	jmp    804a00e <change_mparam+0x88>
 8049fc3:	8b 45 f4             	mov    eax,DWORD PTR [ebp-0xc]
 8049fc6:	a3 70 0b 05 08       	mov    ds:0x8050b70,eax
 8049fcb:	b8 01 00 00 00       	mov    eax,0x1
 8049fd0:	eb 41                	jmp    804a013 <change_mparam+0x8d>
 8049fd2:	a1 64 0b 05 08       	mov    eax,ds:0x8050b64
 8049fd7:	3b 45 f4             	cmp    eax,DWORD PTR [ebp-0xc]
 8049fda:	77 1c                	ja     8049ff8 <change_mparam+0x72>
 8049fdc:	8b 45 f4             	mov    eax,DWORD PTR [ebp-0xc]
 8049fdf:	83 e8 01             	sub    eax,0x1
 8049fe2:	23 45 f4             	and    eax,DWORD PTR [ebp-0xc]
 8049fe5:	85 c0                	test   eax,eax
 8049fe7:	75 0f                	jne    8049ff8 <change_mparam+0x72>
 8049fe9:	8b 45 f4             	mov    eax,DWORD PTR [ebp-0xc]
 8049fec:	a3 68 0b 05 08       	mov    ds:0x8050b68,eax
 8049ff1:	b8 01 00 00 00       	mov    eax,0x1
 8049ff6:	eb 1b                	jmp    804a013 <change_mparam+0x8d>
 8049ff8:	b8 00 00 00 00       	mov    eax,0x0
 8049ffd:	eb 14                	jmp    804a013 <change_mparam+0x8d>
 8049fff:	8b 45 f4             	mov    eax,DWORD PTR [ebp-0xc]
 804a002:	a3 6c 0b 05 08       	mov    ds:0x8050b6c,eax
 804a007:	b8 01 00 00 00       	mov    eax,0x1
 804a00c:	eb 05                	jmp    804a013 <change_mparam+0x8d>
 804a00e:	b8 00 00 00 00       	mov    eax,0x0
 804a013:	c9                   	leave  
 804a014:	c3                   	ret    

0804a015 <internal_mallinfo>:
 804a015:	55                   	push   ebp
 804a016:	89 e5                	mov    ebp,esp
 804a018:	57                   	push   edi
 804a019:	53                   	push   ebx
 804a01a:	83 ec 40             	sub    esp,0x40
 804a01d:	8d 5d b8             	lea    ebx,[ebp-0x48]
 804a020:	b8 00 00 00 00       	mov    eax,0x0
 804a025:	ba 0a 00 00 00       	mov    edx,0xa
 804a02a:	89 df                	mov    edi,ebx
 804a02c:	89 d1                	mov    ecx,edx
 804a02e:	f3 ab                	rep stos DWORD PTR es:[edi],eax
 804a030:	a1 60 0b 05 08       	mov    eax,ds:0x8050b60
 804a035:	85 c0                	test   eax,eax
 804a037:	75 07                	jne    804a040 <internal_mallinfo+0x2b>
 804a039:	e8 9e fe ff ff       	call   8049edc <init_mparams>
 804a03e:	85 c0                	test   eax,eax
 804a040:	8b 45 0c             	mov    eax,DWORD PTR [ebp+0xc]
 804a043:	8b 40 18             	mov    eax,DWORD PTR [eax+0x18]
 804a046:	85 c0                	test   eax,eax
 804a048:	0f 84 18 01 00 00    	je     804a166 <internal_mallinfo+0x151>
 804a04e:	c7 45 f4 01 00 00 00 	mov    DWORD PTR [ebp-0xc],0x1
 804a055:	8b 45 0c             	mov    eax,DWORD PTR [ebp+0xc]
 804a058:	8b 40 0c             	mov    eax,DWORD PTR [eax+0xc]
 804a05b:	83 c0 28             	add    eax,0x28
 804a05e:	89 45 f0             	mov    DWORD PTR [ebp-0x10],eax
 804a061:	8b 45 f0             	mov    eax,DWORD PTR [ebp-0x10]
 804a064:	89 45 ec             	mov    DWORD PTR [ebp-0x14],eax
 804a067:	8b 45 0c             	mov    eax,DWORD PTR [ebp+0xc]
 804a06a:	05 bc 01 00 00       	add    eax,0x1bc
 804a06f:	89 45 e8             	mov    DWORD PTR [ebp-0x18],eax
 804a072:	e9 a0 00 00 00       	jmp    804a117 <internal_mallinfo+0x102>
 804a077:	8b 45 e8             	mov    eax,DWORD PTR [ebp-0x18]
 804a07a:	8b 10                	mov    edx,DWORD PTR [eax]
 804a07c:	8b 45 e8             	mov    eax,DWORD PTR [ebp-0x18]
 804a07f:	8b 00                	mov    eax,DWORD PTR [eax]
 804a081:	83 c0 08             	add    eax,0x8
 804a084:	83 e0 07             	and    eax,0x7
 804a087:	85 c0                	test   eax,eax
 804a089:	74 0f                	je     804a09a <internal_mallinfo+0x85>
 804a08b:	8b 45 e8             	mov    eax,DWORD PTR [ebp-0x18]
 804a08e:	8b 00                	mov    eax,DWORD PTR [eax]
 804a090:	83 c0 08             	add    eax,0x8
 804a093:	f7 d8                	neg    eax
 804a095:	83 e0 07             	and    eax,0x7
 804a098:	eb 05                	jmp    804a09f <internal_mallinfo+0x8a>
 804a09a:	b8 00 00 00 00       	mov    eax,0x0
 804a09f:	01 d0                	add    eax,edx
 804a0a1:	89 45 e4             	mov    DWORD PTR [ebp-0x1c],eax
 804a0a4:	eb 36                	jmp    804a0dc <internal_mallinfo+0xc7>
 804a0a6:	8b 45 e4             	mov    eax,DWORD PTR [ebp-0x1c]
 804a0a9:	8b 40 04             	mov    eax,DWORD PTR [eax+0x4]
 804a0ac:	83 e0 f8             	and    eax,0xfffffff8
 804a0af:	89 45 e0             	mov    DWORD PTR [ebp-0x20],eax
 804a0b2:	8b 45 e0             	mov    eax,DWORD PTR [ebp-0x20]
 804a0b5:	01 45 ec             	add    DWORD PTR [ebp-0x14],eax
 804a0b8:	8b 45 e4             	mov    eax,DWORD PTR [ebp-0x1c]
 804a0bb:	8b 40 04             	mov    eax,DWORD PTR [eax+0x4]
 804a0be:	83 e0 03             	and    eax,0x3
 804a0c1:	83 f8 01             	cmp    eax,0x1
 804a0c4:	75 0a                	jne    804a0d0 <internal_mallinfo+0xbb>
 804a0c6:	8b 45 e0             	mov    eax,DWORD PTR [ebp-0x20]
 804a0c9:	01 45 f0             	add    DWORD PTR [ebp-0x10],eax
 804a0cc:	83 45 f4 01          	add    DWORD PTR [ebp-0xc],0x1
 804a0d0:	8b 45 e4             	mov    eax,DWORD PTR [ebp-0x1c]
 804a0d3:	8b 40 04             	mov    eax,DWORD PTR [eax+0x4]
 804a0d6:	83 e0 f8             	and    eax,0xfffffff8
 804a0d9:	01 45 e4             	add    DWORD PTR [ebp-0x1c],eax
 804a0dc:	8b 45 e8             	mov    eax,DWORD PTR [ebp-0x18]
 804a0df:	8b 00                	mov    eax,DWORD PTR [eax]
 804a0e1:	3b 45 e4             	cmp    eax,DWORD PTR [ebp-0x1c]
 804a0e4:	77 28                	ja     804a10e <internal_mallinfo+0xf9>
 804a0e6:	8b 45 e8             	mov    eax,DWORD PTR [ebp-0x18]
 804a0e9:	8b 10                	mov    edx,DWORD PTR [eax]
 804a0eb:	8b 45 e8             	mov    eax,DWORD PTR [ebp-0x18]
 804a0ee:	8b 40 04             	mov    eax,DWORD PTR [eax+0x4]
 804a0f1:	01 d0                	add    eax,edx
 804a0f3:	3b 45 e4             	cmp    eax,DWORD PTR [ebp-0x1c]
 804a0f6:	76 16                	jbe    804a10e <internal_mallinfo+0xf9>
 804a0f8:	8b 45 0c             	mov    eax,DWORD PTR [ebp+0xc]
 804a0fb:	8b 40 18             	mov    eax,DWORD PTR [eax+0x18]
 804a0fe:	3b 45 e4             	cmp    eax,DWORD PTR [ebp-0x1c]
 804a101:	74 0b                	je     804a10e <internal_mallinfo+0xf9>
 804a103:	8b 45 e4             	mov    eax,DWORD PTR [ebp-0x1c]
 804a106:	8b 40 04             	mov    eax,DWORD PTR [eax+0x4]
 804a109:	83 f8 07             	cmp    eax,0x7
 804a10c:	75 98                	jne    804a0a6 <internal_mallinfo+0x91>
 804a10e:	8b 45 e8             	mov    eax,DWORD PTR [ebp-0x18]
 804a111:	8b 40 08             	mov    eax,DWORD PTR [eax+0x8]
 804a114:	89 45 e8             	mov    DWORD PTR [ebp-0x18],eax
 804a117:	83 7d e8 00          	cmp    DWORD PTR [ebp-0x18],0x0
 804a11b:	0f 85 56 ff ff ff    	jne    804a077 <internal_mallinfo+0x62>
 804a121:	8b 45 ec             	mov    eax,DWORD PTR [ebp-0x14]
 804a124:	89 45 b8             	mov    DWORD PTR [ebp-0x48],eax
 804a127:	8b 45 f4             	mov    eax,DWORD PTR [ebp-0xc]
 804a12a:	89 45 bc             	mov    DWORD PTR [ebp-0x44],eax
 804a12d:	8b 45 0c             	mov    eax,DWORD PTR [ebp+0xc]
 804a130:	8b 80 b0 01 00 00    	mov    eax,DWORD PTR [eax+0x1b0]
 804a136:	2b 45 ec             	sub    eax,DWORD PTR [ebp-0x14]
 804a139:	89 45 c8             	mov    DWORD PTR [ebp-0x38],eax
 804a13c:	8b 45 0c             	mov    eax,DWORD PTR [ebp+0xc]
 804a13f:	8b 80 b4 01 00 00    	mov    eax,DWORD PTR [eax+0x1b4]
 804a145:	89 45 cc             	mov    DWORD PTR [ebp-0x34],eax
 804a148:	8b 45 0c             	mov    eax,DWORD PTR [ebp+0xc]
 804a14b:	8b 80 b0 01 00 00    	mov    eax,DWORD PTR [eax+0x1b0]
 804a151:	2b 45 f0             	sub    eax,DWORD PTR [ebp-0x10]
 804a154:	89 45 d4             	mov    DWORD PTR [ebp-0x2c],eax
 804a157:	8b 45 f0             	mov    eax,DWORD PTR [ebp-0x10]
 804a15a:	89 45 d8             	mov    DWORD PTR [ebp-0x28],eax
 804a15d:	8b 45 0c             	mov    eax,DWORD PTR [ebp+0xc]
 804a160:	8b 40 0c             	mov    eax,DWORD PTR [eax+0xc]
 804a163:	89 45 dc             	mov    DWORD PTR [ebp-0x24],eax
 804a166:	8b 45 08             	mov    eax,DWORD PTR [ebp+0x8]
 804a169:	8b 55 b8             	mov    edx,DWORD PTR [ebp-0x48]
 804a16c:	89 10                	mov    DWORD PTR [eax],edx
 804a16e:	8b 55 bc             	mov    edx,DWORD PTR [ebp-0x44]
 804a171:	89 50 04             	mov    DWORD PTR [eax+0x4],edx
 804a174:	8b 55 c0             	mov    edx,DWORD PTR [ebp-0x40]
 804a177:	89 50 08             	mov    DWORD PTR [eax+0x8],edx
 804a17a:	8b 55 c4             	mov    edx,DWORD PTR [ebp-0x3c]
 804a17d:	89 50 0c             	mov    DWORD PTR [eax+0xc],edx
 804a180:	8b 55 c8             	mov    edx,DWORD PTR [ebp-0x38]
 804a183:	89 50 10             	mov    DWORD PTR [eax+0x10],edx
 804a186:	8b 55 cc             	mov    edx,DWORD PTR [ebp-0x34]
 804a189:	89 50 14             	mov    DWORD PTR [eax+0x14],edx
 804a18c:	8b 55 d0             	mov    edx,DWORD PTR [ebp-0x30]
 804a18f:	89 50 18             	mov    DWORD PTR [eax+0x18],edx
 804a192:	8b 55 d4             	mov    edx,DWORD PTR [ebp-0x2c]
 804a195:	89 50 1c             	mov    DWORD PTR [eax+0x1c],edx
 804a198:	8b 55 d8             	mov    edx,DWORD PTR [ebp-0x28]
 804a19b:	89 50 20             	mov    DWORD PTR [eax+0x20],edx
 804a19e:	8b 55 dc             	mov    edx,DWORD PTR [ebp-0x24]
 804a1a1:	89 50 24             	mov    DWORD PTR [eax+0x24],edx
 804a1a4:	8b 45 08             	mov    eax,DWORD PTR [ebp+0x8]
 804a1a7:	83 c4 40             	add    esp,0x40
 804a1aa:	5b                   	pop    ebx
 804a1ab:	5f                   	pop    edi
 804a1ac:	5d                   	pop    ebp
 804a1ad:	c2 04 00             	ret    0x4

0804a1b0 <internal_malloc_stats>:
 804a1b0:	55                   	push   ebp
 804a1b1:	89 e5                	mov    ebp,esp
 804a1b3:	83 ec 38             	sub    esp,0x38
 804a1b6:	a1 60 0b 05 08       	mov    eax,ds:0x8050b60
 804a1bb:	85 c0                	test   eax,eax
 804a1bd:	75 07                	jne    804a1c6 <internal_malloc_stats+0x16>
 804a1bf:	e8 18 fd ff ff       	call   8049edc <init_mparams>
 804a1c4:	85 c0                	test   eax,eax
 804a1c6:	c7 45 f4 00 00 00 00 	mov    DWORD PTR [ebp-0xc],0x0
 804a1cd:	c7 45 f0 00 00 00 00 	mov    DWORD PTR [ebp-0x10],0x0
 804a1d4:	c7 45 ec 00 00 00 00 	mov    DWORD PTR [ebp-0x14],0x0
 804a1db:	8b 45 08             	mov    eax,DWORD PTR [ebp+0x8]
 804a1de:	8b 40 18             	mov    eax,DWORD PTR [eax+0x18]
 804a1e1:	85 c0                	test   eax,eax
 804a1e3:	0f 84 d7 00 00 00    	je     804a2c0 <internal_malloc_stats+0x110>
 804a1e9:	8b 45 08             	mov    eax,DWORD PTR [ebp+0x8]
 804a1ec:	05 bc 01 00 00       	add    eax,0x1bc
 804a1f1:	89 45 e8             	mov    DWORD PTR [ebp-0x18],eax
 804a1f4:	8b 45 08             	mov    eax,DWORD PTR [ebp+0x8]
 804a1f7:	8b 80 b4 01 00 00    	mov    eax,DWORD PTR [eax+0x1b4]
 804a1fd:	89 45 f4             	mov    DWORD PTR [ebp-0xc],eax
 804a200:	8b 45 08             	mov    eax,DWORD PTR [ebp+0x8]
 804a203:	8b 80 b0 01 00 00    	mov    eax,DWORD PTR [eax+0x1b0]
 804a209:	89 45 f0             	mov    DWORD PTR [ebp-0x10],eax
 804a20c:	8b 45 08             	mov    eax,DWORD PTR [ebp+0x8]
 804a20f:	8b 40 0c             	mov    eax,DWORD PTR [eax+0xc]
 804a212:	8b 55 f0             	mov    edx,DWORD PTR [ebp-0x10]
 804a215:	89 d1                	mov    ecx,edx
 804a217:	29 c1                	sub    ecx,eax
 804a219:	89 c8                	mov    eax,ecx
 804a21b:	83 e8 28             	sub    eax,0x28
 804a21e:	89 45 ec             	mov    DWORD PTR [ebp-0x14],eax
 804a221:	e9 90 00 00 00       	jmp    804a2b6 <internal_malloc_stats+0x106>
 804a226:	8b 45 e8             	mov    eax,DWORD PTR [ebp-0x18]
 804a229:	8b 10                	mov    edx,DWORD PTR [eax]
 804a22b:	8b 45 e8             	mov    eax,DWORD PTR [ebp-0x18]
 804a22e:	8b 00                	mov    eax,DWORD PTR [eax]
 804a230:	83 c0 08             	add    eax,0x8
 804a233:	83 e0 07             	and    eax,0x7
 804a236:	85 c0                	test   eax,eax
 804a238:	74 0f                	je     804a249 <internal_malloc_stats+0x99>
 804a23a:	8b 45 e8             	mov    eax,DWORD PTR [ebp-0x18]
 804a23d:	8b 00                	mov    eax,DWORD PTR [eax]
 804a23f:	83 c0 08             	add    eax,0x8
 804a242:	f7 d8                	neg    eax
 804a244:	83 e0 07             	and    eax,0x7
 804a247:	eb 05                	jmp    804a24e <internal_malloc_stats+0x9e>
 804a249:	b8 00 00 00 00       	mov    eax,0x0
 804a24e:	01 d0                	add    eax,edx
 804a250:	89 45 e4             	mov    DWORD PTR [ebp-0x1c],eax
 804a253:	eb 26                	jmp    804a27b <internal_malloc_stats+0xcb>
 804a255:	8b 45 e4             	mov    eax,DWORD PTR [ebp-0x1c]
 804a258:	8b 40 04             	mov    eax,DWORD PTR [eax+0x4]
 804a25b:	83 e0 03             	and    eax,0x3
 804a25e:	83 f8 01             	cmp    eax,0x1
 804a261:	75 0c                	jne    804a26f <internal_malloc_stats+0xbf>
 804a263:	8b 45 e4             	mov    eax,DWORD PTR [ebp-0x1c]
 804a266:	8b 40 04             	mov    eax,DWORD PTR [eax+0x4]
 804a269:	83 e0 f8             	and    eax,0xfffffff8
 804a26c:	29 45 ec             	sub    DWORD PTR [ebp-0x14],eax
 804a26f:	8b 45 e4             	mov    eax,DWORD PTR [ebp-0x1c]
 804a272:	8b 40 04             	mov    eax,DWORD PTR [eax+0x4]
 804a275:	83 e0 f8             	and    eax,0xfffffff8
 804a278:	01 45 e4             	add    DWORD PTR [ebp-0x1c],eax
 804a27b:	8b 45 e8             	mov    eax,DWORD PTR [ebp-0x18]
 804a27e:	8b 00                	mov    eax,DWORD PTR [eax]
 804a280:	3b 45 e4             	cmp    eax,DWORD PTR [ebp-0x1c]
 804a283:	77 28                	ja     804a2ad <internal_malloc_stats+0xfd>
 804a285:	8b 45 e8             	mov    eax,DWORD PTR [ebp-0x18]
 804a288:	8b 10                	mov    edx,DWORD PTR [eax]
 804a28a:	8b 45 e8             	mov    eax,DWORD PTR [ebp-0x18]
 804a28d:	8b 40 04             	mov    eax,DWORD PTR [eax+0x4]
 804a290:	01 d0                	add    eax,edx
 804a292:	3b 45 e4             	cmp    eax,DWORD PTR [ebp-0x1c]
 804a295:	76 16                	jbe    804a2ad <internal_malloc_stats+0xfd>
 804a297:	8b 45 08             	mov    eax,DWORD PTR [ebp+0x8]
 804a29a:	8b 40 18             	mov    eax,DWORD PTR [eax+0x18]
 804a29d:	3b 45 e4             	cmp    eax,DWORD PTR [ebp-0x1c]
 804a2a0:	74 0b                	je     804a2ad <internal_malloc_stats+0xfd>
 804a2a2:	8b 45 e4             	mov    eax,DWORD PTR [ebp-0x1c]
 804a2a5:	8b 40 04             	mov    eax,DWORD PTR [eax+0x4]
 804a2a8:	83 f8 07             	cmp    eax,0x7
 804a2ab:	75 a8                	jne    804a255 <internal_malloc_stats+0xa5>
 804a2ad:	8b 45 e8             	mov    eax,DWORD PTR [ebp-0x18]
 804a2b0:	8b 40 08             	mov    eax,DWORD PTR [eax+0x8]
 804a2b3:	89 45 e8             	mov    DWORD PTR [ebp-0x18],eax
 804a2b6:	83 7d e8 00          	cmp    DWORD PTR [ebp-0x18],0x0
 804a2ba:	0f 85 66 ff ff ff    	jne    804a226 <internal_malloc_stats+0x76>
 804a2c0:	a1 40 0b 05 08       	mov    eax,ds:0x8050b40
 804a2c5:	8b 55 f4             	mov    edx,DWORD PTR [ebp-0xc]
 804a2c8:	89 54 24 08          	mov    DWORD PTR [esp+0x8],edx
 804a2cc:	c7 44 24 04 9f f0 04 	mov    DWORD PTR [esp+0x4],0x804f09f
 804a2d3:	08 
 804a2d4:	89 04 24             	mov    DWORD PTR [esp],eax
 804a2d7:	e8 94 e7 ff ff       	call   8048a70 <fprintf@plt>
 804a2dc:	a1 40 0b 05 08       	mov    eax,ds:0x8050b40
 804a2e1:	8b 55 f0             	mov    edx,DWORD PTR [ebp-0x10]
 804a2e4:	89 54 24 08          	mov    DWORD PTR [esp+0x8],edx
 804a2e8:	c7 44 24 04 b9 f0 04 	mov    DWORD PTR [esp+0x4],0x804f0b9
 804a2ef:	08 
 804a2f0:	89 04 24             	mov    DWORD PTR [esp],eax
 804a2f3:	e8 78 e7 ff ff       	call   8048a70 <fprintf@plt>
 804a2f8:	a1 40 0b 05 08       	mov    eax,ds:0x8050b40
 804a2fd:	8b 55 ec             	mov    edx,DWORD PTR [ebp-0x14]
 804a300:	89 54 24 08          	mov    DWORD PTR [esp+0x8],edx
 804a304:	c7 44 24 04 d3 f0 04 	mov    DWORD PTR [esp+0x4],0x804f0d3
 804a30b:	08 
 804a30c:	89 04 24             	mov    DWORD PTR [esp],eax
 804a30f:	e8 5c e7 ff ff       	call   8048a70 <fprintf@plt>
 804a314:	c9                   	leave  
 804a315:	c3                   	ret    

0804a316 <mmap_alloc>:
 804a316:	55                   	push   ebp
 804a317:	89 e5                	mov    ebp,esp
 804a319:	83 ec 48             	sub    esp,0x48
 804a31c:	8b 15 64 0b 05 08    	mov    edx,DWORD PTR ds:0x8050b64
 804a322:	8b 45 0c             	mov    eax,DWORD PTR [ebp+0xc]
 804a325:	01 d0                	add    eax,edx
 804a327:	8d 50 1e             	lea    edx,[eax+0x1e]
 804a32a:	a1 64 0b 05 08       	mov    eax,ds:0x8050b64
 804a32f:	f7 d8                	neg    eax
 804a331:	21 d0                	and    eax,edx
 804a333:	89 45 f4             	mov    DWORD PTR [ebp-0xc],eax
 804a336:	8b 45 f4             	mov    eax,DWORD PTR [ebp-0xc]
 804a339:	3b 45 0c             	cmp    eax,DWORD PTR [ebp+0xc]
 804a33c:	0f 86 16 01 00 00    	jbe    804a458 <mmap_alloc+0x142>
 804a342:	c7 44 24 14 00 00 00 	mov    DWORD PTR [esp+0x14],0x0
 804a349:	00 
 804a34a:	c7 44 24 10 ff ff ff 	mov    DWORD PTR [esp+0x10],0xffffffff
 804a351:	ff 
 804a352:	c7 44 24 0c 22 00 00 	mov    DWORD PTR [esp+0xc],0x22
 804a359:	00 
 804a35a:	c7 44 24 08 03 00 00 	mov    DWORD PTR [esp+0x8],0x3
 804a361:	00 
 804a362:	8b 45 f4             	mov    eax,DWORD PTR [ebp-0xc]
 804a365:	89 44 24 04          	mov    DWORD PTR [esp+0x4],eax
 804a369:	c7 04 24 00 00 00 00 	mov    DWORD PTR [esp],0x0
 804a370:	e8 bb e6 ff ff       	call   8048a30 <mmap@plt>
 804a375:	89 45 f0             	mov    DWORD PTR [ebp-0x10],eax
 804a378:	83 7d f0 ff          	cmp    DWORD PTR [ebp-0x10],0xffffffff
 804a37c:	0f 84 d6 00 00 00    	je     804a458 <mmap_alloc+0x142>
 804a382:	8b 45 f0             	mov    eax,DWORD PTR [ebp-0x10]
 804a385:	83 c0 08             	add    eax,0x8
 804a388:	83 e0 07             	and    eax,0x7
 804a38b:	85 c0                	test   eax,eax
 804a38d:	74 0d                	je     804a39c <mmap_alloc+0x86>
 804a38f:	8b 45 f0             	mov    eax,DWORD PTR [ebp-0x10]
 804a392:	83 c0 08             	add    eax,0x8
 804a395:	f7 d8                	neg    eax
 804a397:	83 e0 07             	and    eax,0x7
 804a39a:	eb 05                	jmp    804a3a1 <mmap_alloc+0x8b>
 804a39c:	b8 00 00 00 00       	mov    eax,0x0
 804a3a1:	89 45 ec             	mov    DWORD PTR [ebp-0x14],eax
 804a3a4:	8b 45 ec             	mov    eax,DWORD PTR [ebp-0x14]
 804a3a7:	8b 55 f4             	mov    edx,DWORD PTR [ebp-0xc]
 804a3aa:	89 d1                	mov    ecx,edx
 804a3ac:	29 c1                	sub    ecx,eax
 804a3ae:	89 c8                	mov    eax,ecx
 804a3b0:	83 e8 10             	sub    eax,0x10
 804a3b3:	89 45 e8             	mov    DWORD PTR [ebp-0x18],eax
 804a3b6:	8b 45 ec             	mov    eax,DWORD PTR [ebp-0x14]
 804a3b9:	8b 55 f0             	mov    edx,DWORD PTR [ebp-0x10]
 804a3bc:	01 d0                	add    eax,edx
 804a3be:	89 45 e4             	mov    DWORD PTR [ebp-0x1c],eax
 804a3c1:	8b 45 e4             	mov    eax,DWORD PTR [ebp-0x1c]
 804a3c4:	8b 55 ec             	mov    edx,DWORD PTR [ebp-0x14]
 804a3c7:	89 10                	mov    DWORD PTR [eax],edx
 804a3c9:	8b 45 e4             	mov    eax,DWORD PTR [ebp-0x1c]
 804a3cc:	8b 55 e8             	mov    edx,DWORD PTR [ebp-0x18]
 804a3cf:	89 50 04             	mov    DWORD PTR [eax+0x4],edx
 804a3d2:	8b 45 e8             	mov    eax,DWORD PTR [ebp-0x18]
 804a3d5:	8b 55 e4             	mov    edx,DWORD PTR [ebp-0x1c]
 804a3d8:	01 d0                	add    eax,edx
 804a3da:	c7 40 04 07 00 00 00 	mov    DWORD PTR [eax+0x4],0x7
 804a3e1:	8b 45 e8             	mov    eax,DWORD PTR [ebp-0x18]
 804a3e4:	8d 50 04             	lea    edx,[eax+0x4]
 804a3e7:	8b 45 e4             	mov    eax,DWORD PTR [ebp-0x1c]
 804a3ea:	01 d0                	add    eax,edx
 804a3ec:	c7 40 04 00 00 00 00 	mov    DWORD PTR [eax+0x4],0x0
 804a3f3:	8b 45 08             	mov    eax,DWORD PTR [ebp+0x8]
 804a3f6:	8b 40 10             	mov    eax,DWORD PTR [eax+0x10]
 804a3f9:	85 c0                	test   eax,eax
 804a3fb:	74 0b                	je     804a408 <mmap_alloc+0xf2>
 804a3fd:	8b 45 08             	mov    eax,DWORD PTR [ebp+0x8]
 804a400:	8b 40 10             	mov    eax,DWORD PTR [eax+0x10]
 804a403:	3b 45 f0             	cmp    eax,DWORD PTR [ebp-0x10]
 804a406:	76 09                	jbe    804a411 <mmap_alloc+0xfb>
 804a408:	8b 45 08             	mov    eax,DWORD PTR [ebp+0x8]
 804a40b:	8b 55 f0             	mov    edx,DWORD PTR [ebp-0x10]
 804a40e:	89 50 10             	mov    DWORD PTR [eax+0x10],edx
 804a411:	8b 45 08             	mov    eax,DWORD PTR [ebp+0x8]
 804a414:	8b 90 b0 01 00 00    	mov    edx,DWORD PTR [eax+0x1b0]
 804a41a:	8b 45 f4             	mov    eax,DWORD PTR [ebp-0xc]
 804a41d:	01 c2                	add    edx,eax
 804a41f:	8b 45 08             	mov    eax,DWORD PTR [ebp+0x8]
 804a422:	89 90 b0 01 00 00    	mov    DWORD PTR [eax+0x1b0],edx
 804a428:	8b 45 08             	mov    eax,DWORD PTR [ebp+0x8]
 804a42b:	8b 90 b0 01 00 00    	mov    edx,DWORD PTR [eax+0x1b0]
 804a431:	8b 45 08             	mov    eax,DWORD PTR [ebp+0x8]
 804a434:	8b 80 b4 01 00 00    	mov    eax,DWORD PTR [eax+0x1b4]
 804a43a:	39 c2                	cmp    edx,eax
 804a43c:	76 12                	jbe    804a450 <mmap_alloc+0x13a>
 804a43e:	8b 45 08             	mov    eax,DWORD PTR [ebp+0x8]
 804a441:	8b 90 b0 01 00 00    	mov    edx,DWORD PTR [eax+0x1b0]
 804a447:	8b 45 08             	mov    eax,DWORD PTR [ebp+0x8]
 804a44a:	89 90 b4 01 00 00    	mov    DWORD PTR [eax+0x1b4],edx
 804a450:	8b 45 e4             	mov    eax,DWORD PTR [ebp-0x1c]
 804a453:	83 c0 08             	add    eax,0x8
 804a456:	eb 05                	jmp    804a45d <mmap_alloc+0x147>
 804a458:	b8 00 00 00 00       	mov    eax,0x0
 804a45d:	c9                   	leave  
 804a45e:	c3                   	ret    

0804a45f <mmap_resize>:
 804a45f:	55                   	push   ebp
 804a460:	89 e5                	mov    ebp,esp
 804a462:	53                   	push   ebx
 804a463:	83 ec 34             	sub    esp,0x34
 804a466:	8b 45 0c             	mov    eax,DWORD PTR [ebp+0xc]
 804a469:	8b 40 04             	mov    eax,DWORD PTR [eax+0x4]
 804a46c:	83 e0 f8             	and    eax,0xfffffff8
 804a46f:	89 45 f4             	mov    DWORD PTR [ebp-0xc],eax
 804a472:	8b 45 10             	mov    eax,DWORD PTR [ebp+0x10]
 804a475:	c1 e8 03             	shr    eax,0x3
 804a478:	83 f8 1f             	cmp    eax,0x1f
 804a47b:	77 0a                	ja     804a487 <mmap_resize+0x28>
 804a47d:	b8 00 00 00 00       	mov    eax,0x0
 804a482:	e9 3a 01 00 00       	jmp    804a5c1 <mmap_resize+0x162>
 804a487:	8b 45 10             	mov    eax,DWORD PTR [ebp+0x10]
 804a48a:	83 c0 04             	add    eax,0x4
 804a48d:	3b 45 f4             	cmp    eax,DWORD PTR [ebp-0xc]
 804a490:	77 1b                	ja     804a4ad <mmap_resize+0x4e>
 804a492:	8b 45 10             	mov    eax,DWORD PTR [ebp+0x10]
 804a495:	8b 55 f4             	mov    edx,DWORD PTR [ebp-0xc]
 804a498:	29 c2                	sub    edx,eax
 804a49a:	a1 68 0b 05 08       	mov    eax,ds:0x8050b68
 804a49f:	01 c0                	add    eax,eax
 804a4a1:	39 c2                	cmp    edx,eax
 804a4a3:	77 08                	ja     804a4ad <mmap_resize+0x4e>
 804a4a5:	8b 45 0c             	mov    eax,DWORD PTR [ebp+0xc]
 804a4a8:	e9 14 01 00 00       	jmp    804a5c1 <mmap_resize+0x162>
 804a4ad:	8b 45 0c             	mov    eax,DWORD PTR [ebp+0xc]
 804a4b0:	8b 00                	mov    eax,DWORD PTR [eax]
 804a4b2:	89 45 f0             	mov    DWORD PTR [ebp-0x10],eax
 804a4b5:	8b 45 f0             	mov    eax,DWORD PTR [ebp-0x10]
 804a4b8:	8b 55 f4             	mov    edx,DWORD PTR [ebp-0xc]
 804a4bb:	01 d0                	add    eax,edx
 804a4bd:	83 c0 10             	add    eax,0x10
 804a4c0:	89 45 ec             	mov    DWORD PTR [ebp-0x14],eax
 804a4c3:	8b 15 64 0b 05 08    	mov    edx,DWORD PTR ds:0x8050b64
 804a4c9:	8b 45 10             	mov    eax,DWORD PTR [ebp+0x10]
 804a4cc:	01 d0                	add    eax,edx
 804a4ce:	8d 50 1e             	lea    edx,[eax+0x1e]
 804a4d1:	a1 64 0b 05 08       	mov    eax,ds:0x8050b64
 804a4d6:	f7 d8                	neg    eax
 804a4d8:	21 d0                	and    eax,edx
 804a4da:	89 45 e8             	mov    DWORD PTR [ebp-0x18],eax
 804a4dd:	8b 45 f0             	mov    eax,DWORD PTR [ebp-0x10]
 804a4e0:	89 c2                	mov    edx,eax
 804a4e2:	f7 da                	neg    edx
 804a4e4:	8b 45 0c             	mov    eax,DWORD PTR [ebp+0xc]
 804a4e7:	01 c2                	add    edx,eax
 804a4e9:	c7 44 24 0c 01 00 00 	mov    DWORD PTR [esp+0xc],0x1
 804a4f0:	00 
 804a4f1:	8b 45 e8             	mov    eax,DWORD PTR [ebp-0x18]
 804a4f4:	89 44 24 08          	mov    DWORD PTR [esp+0x8],eax
 804a4f8:	8b 45 ec             	mov    eax,DWORD PTR [ebp-0x14]
 804a4fb:	89 44 24 04          	mov    DWORD PTR [esp+0x4],eax
 804a4ff:	89 14 24             	mov    DWORD PTR [esp],edx
 804a502:	e8 29 e6 ff ff       	call   8048b30 <mremap@plt>
 804a507:	89 45 e4             	mov    DWORD PTR [ebp-0x1c],eax
 804a50a:	83 7d e4 ff          	cmp    DWORD PTR [ebp-0x1c],0xffffffff
 804a50e:	0f 84 a8 00 00 00    	je     804a5bc <mmap_resize+0x15d>
 804a514:	8b 45 f0             	mov    eax,DWORD PTR [ebp-0x10]
 804a517:	8b 55 e4             	mov    edx,DWORD PTR [ebp-0x1c]
 804a51a:	01 d0                	add    eax,edx
 804a51c:	89 45 e0             	mov    DWORD PTR [ebp-0x20],eax
 804a51f:	8b 45 f0             	mov    eax,DWORD PTR [ebp-0x10]
 804a522:	8b 55 e8             	mov    edx,DWORD PTR [ebp-0x18]
 804a525:	89 d1                	mov    ecx,edx
 804a527:	29 c1                	sub    ecx,eax
 804a529:	89 c8                	mov    eax,ecx
 804a52b:	83 e8 10             	sub    eax,0x10
 804a52e:	89 45 dc             	mov    DWORD PTR [ebp-0x24],eax
 804a531:	8b 45 e0             	mov    eax,DWORD PTR [ebp-0x20]
 804a534:	8b 55 dc             	mov    edx,DWORD PTR [ebp-0x24]
 804a537:	89 50 04             	mov    DWORD PTR [eax+0x4],edx
 804a53a:	8b 45 dc             	mov    eax,DWORD PTR [ebp-0x24]
 804a53d:	8b 55 e0             	mov    edx,DWORD PTR [ebp-0x20]
 804a540:	01 d0                	add    eax,edx
 804a542:	c7 40 04 07 00 00 00 	mov    DWORD PTR [eax+0x4],0x7
 804a549:	8b 45 dc             	mov    eax,DWORD PTR [ebp-0x24]
 804a54c:	8d 50 04             	lea    edx,[eax+0x4]
 804a54f:	8b 45 e0             	mov    eax,DWORD PTR [ebp-0x20]
 804a552:	01 d0                	add    eax,edx
 804a554:	c7 40 04 00 00 00 00 	mov    DWORD PTR [eax+0x4],0x0
 804a55b:	8b 45 08             	mov    eax,DWORD PTR [ebp+0x8]
 804a55e:	8b 40 10             	mov    eax,DWORD PTR [eax+0x10]
 804a561:	3b 45 e4             	cmp    eax,DWORD PTR [ebp-0x1c]
 804a564:	76 09                	jbe    804a56f <mmap_resize+0x110>
 804a566:	8b 45 08             	mov    eax,DWORD PTR [ebp+0x8]
 804a569:	8b 55 e4             	mov    edx,DWORD PTR [ebp-0x1c]
 804a56c:	89 50 10             	mov    DWORD PTR [eax+0x10],edx
 804a56f:	8b 45 08             	mov    eax,DWORD PTR [ebp+0x8]
 804a572:	8b 80 b0 01 00 00    	mov    eax,DWORD PTR [eax+0x1b0]
 804a578:	8b 55 ec             	mov    edx,DWORD PTR [ebp-0x14]
 804a57b:	8b 4d e8             	mov    ecx,DWORD PTR [ebp-0x18]
 804a57e:	89 cb                	mov    ebx,ecx
 804a580:	29 d3                	sub    ebx,edx
 804a582:	89 da                	mov    edx,ebx
 804a584:	01 c2                	add    edx,eax
 804a586:	8b 45 08             	mov    eax,DWORD PTR [ebp+0x8]
 804a589:	89 90 b0 01 00 00    	mov    DWORD PTR [eax+0x1b0],edx
 804a58f:	8b 45 08             	mov    eax,DWORD PTR [ebp+0x8]
 804a592:	8b 90 b0 01 00 00    	mov    edx,DWORD PTR [eax+0x1b0]
 804a598:	8b 45 08             	mov    eax,DWORD PTR [ebp+0x8]
 804a59b:	8b 80 b4 01 00 00    	mov    eax,DWORD PTR [eax+0x1b4]
 804a5a1:	39 c2                	cmp    edx,eax
 804a5a3:	76 12                	jbe    804a5b7 <mmap_resize+0x158>
 804a5a5:	8b 45 08             	mov    eax,DWORD PTR [ebp+0x8]
 804a5a8:	8b 90 b0 01 00 00    	mov    edx,DWORD PTR [eax+0x1b0]
 804a5ae:	8b 45 08             	mov    eax,DWORD PTR [ebp+0x8]
 804a5b1:	89 90 b4 01 00 00    	mov    DWORD PTR [eax+0x1b4],edx
 804a5b7:	8b 45 e0             	mov    eax,DWORD PTR [ebp-0x20]
 804a5ba:	eb 05                	jmp    804a5c1 <mmap_resize+0x162>
 804a5bc:	b8 00 00 00 00       	mov    eax,0x0
 804a5c1:	83 c4 34             	add    esp,0x34
 804a5c4:	5b                   	pop    ebx
 804a5c5:	5d                   	pop    ebp
 804a5c6:	c3                   	ret    

0804a5c7 <init_top>:
 804a5c7:	55                   	push   ebp
 804a5c8:	89 e5                	mov    ebp,esp
 804a5ca:	83 ec 10             	sub    esp,0x10
 804a5cd:	8b 45 0c             	mov    eax,DWORD PTR [ebp+0xc]
 804a5d0:	83 c0 08             	add    eax,0x8
 804a5d3:	83 e0 07             	and    eax,0x7
 804a5d6:	85 c0                	test   eax,eax
 804a5d8:	74 0d                	je     804a5e7 <init_top+0x20>
 804a5da:	8b 45 0c             	mov    eax,DWORD PTR [ebp+0xc]
 804a5dd:	83 c0 08             	add    eax,0x8
 804a5e0:	f7 d8                	neg    eax
 804a5e2:	83 e0 07             	and    eax,0x7
 804a5e5:	eb 05                	jmp    804a5ec <init_top+0x25>
 804a5e7:	b8 00 00 00 00       	mov    eax,0x0
 804a5ec:	89 45 fc             	mov    DWORD PTR [ebp-0x4],eax
 804a5ef:	8b 45 fc             	mov    eax,DWORD PTR [ebp-0x4]
 804a5f2:	01 45 0c             	add    DWORD PTR [ebp+0xc],eax
 804a5f5:	8b 45 fc             	mov    eax,DWORD PTR [ebp-0x4]
 804a5f8:	29 45 10             	sub    DWORD PTR [ebp+0x10],eax
 804a5fb:	8b 45 08             	mov    eax,DWORD PTR [ebp+0x8]
 804a5fe:	8b 55 0c             	mov    edx,DWORD PTR [ebp+0xc]
 804a601:	89 50 18             	mov    DWORD PTR [eax+0x18],edx
 804a604:	8b 45 08             	mov    eax,DWORD PTR [ebp+0x8]
 804a607:	8b 55 10             	mov    edx,DWORD PTR [ebp+0x10]
 804a60a:	89 50 0c             	mov    DWORD PTR [eax+0xc],edx
 804a60d:	8b 45 10             	mov    eax,DWORD PTR [ebp+0x10]
 804a610:	89 c2                	mov    edx,eax
 804a612:	83 ca 01             	or     edx,0x1
 804a615:	8b 45 0c             	mov    eax,DWORD PTR [ebp+0xc]
 804a618:	89 50 04             	mov    DWORD PTR [eax+0x4],edx
 804a61b:	8b 45 10             	mov    eax,DWORD PTR [ebp+0x10]
 804a61e:	8b 55 0c             	mov    edx,DWORD PTR [ebp+0xc]
 804a621:	01 d0                	add    eax,edx
 804a623:	c7 40 04 28 00 00 00 	mov    DWORD PTR [eax+0x4],0x28
 804a62a:	8b 15 70 0b 05 08    	mov    edx,DWORD PTR ds:0x8050b70
 804a630:	8b 45 08             	mov    eax,DWORD PTR [ebp+0x8]
 804a633:	89 50 1c             	mov    DWORD PTR [eax+0x1c],edx
 804a636:	c9                   	leave  
 804a637:	c3                   	ret    

0804a638 <init_bins>:
 804a638:	55                   	push   ebp
 804a639:	89 e5                	mov    ebp,esp
 804a63b:	83 ec 10             	sub    esp,0x10
 804a63e:	c7 45 fc 00 00 00 00 	mov    DWORD PTR [ebp-0x4],0x0
 804a645:	eb 33                	jmp    804a67a <init_bins+0x42>
 804a647:	8b 45 fc             	mov    eax,DWORD PTR [ebp-0x4]
 804a64a:	01 c0                	add    eax,eax
 804a64c:	83 c0 08             	add    eax,0x8
 804a64f:	8d 14 85 00 00 00 00 	lea    edx,[eax*4+0x0]
 804a656:	8b 45 08             	mov    eax,DWORD PTR [ebp+0x8]
 804a659:	01 d0                	add    eax,edx
 804a65b:	83 c0 08             	add    eax,0x8
 804a65e:	89 45 f8             	mov    DWORD PTR [ebp-0x8],eax
 804a661:	8b 45 f8             	mov    eax,DWORD PTR [ebp-0x8]
 804a664:	8b 55 f8             	mov    edx,DWORD PTR [ebp-0x8]
 804a667:	89 50 0c             	mov    DWORD PTR [eax+0xc],edx
 804a66a:	8b 45 f8             	mov    eax,DWORD PTR [ebp-0x8]
 804a66d:	8b 50 0c             	mov    edx,DWORD PTR [eax+0xc]
 804a670:	8b 45 f8             	mov    eax,DWORD PTR [ebp-0x8]
 804a673:	89 50 08             	mov    DWORD PTR [eax+0x8],edx
 804a676:	83 45 fc 01          	add    DWORD PTR [ebp-0x4],0x1
 804a67a:	83 7d fc 1f          	cmp    DWORD PTR [ebp-0x4],0x1f
 804a67e:	76 c7                	jbe    804a647 <init_bins+0xf>
 804a680:	c9                   	leave  
 804a681:	c3                   	ret    

0804a682 <prepend_alloc>:
 804a682:	55                   	push   ebp
 804a683:	89 e5                	mov    ebp,esp
 804a685:	56                   	push   esi
 804a686:	53                   	push   ebx
 804a687:	83 c4 80             	add    esp,0xffffff80
 804a68a:	8b 45 0c             	mov    eax,DWORD PTR [ebp+0xc]
 804a68d:	83 c0 08             	add    eax,0x8
 804a690:	83 e0 07             	and    eax,0x7
 804a693:	85 c0                	test   eax,eax
 804a695:	74 0d                	je     804a6a4 <prepend_alloc+0x22>
 804a697:	8b 45 0c             	mov    eax,DWORD PTR [ebp+0xc]
 804a69a:	83 c0 08             	add    eax,0x8
 804a69d:	f7 d8                	neg    eax
 804a69f:	83 e0 07             	and    eax,0x7
 804a6a2:	eb 05                	jmp    804a6a9 <prepend_alloc+0x27>
 804a6a4:	b8 00 00 00 00       	mov    eax,0x0
 804a6a9:	8b 55 0c             	mov    edx,DWORD PTR [ebp+0xc]
 804a6ac:	01 d0                	add    eax,edx
 804a6ae:	89 45 d0             	mov    DWORD PTR [ebp-0x30],eax
 804a6b1:	8b 45 10             	mov    eax,DWORD PTR [ebp+0x10]
 804a6b4:	83 c0 08             	add    eax,0x8
 804a6b7:	83 e0 07             	and    eax,0x7
 804a6ba:	85 c0                	test   eax,eax
 804a6bc:	74 0d                	je     804a6cb <prepend_alloc+0x49>
 804a6be:	8b 45 10             	mov    eax,DWORD PTR [ebp+0x10]
 804a6c1:	83 c0 08             	add    eax,0x8
 804a6c4:	f7 d8                	neg    eax
 804a6c6:	83 e0 07             	and    eax,0x7
 804a6c9:	eb 05                	jmp    804a6d0 <prepend_alloc+0x4e>
 804a6cb:	b8 00 00 00 00       	mov    eax,0x0
 804a6d0:	8b 55 10             	mov    edx,DWORD PTR [ebp+0x10]
 804a6d3:	01 d0                	add    eax,edx
 804a6d5:	89 45 f4             	mov    DWORD PTR [ebp-0xc],eax
 804a6d8:	8b 55 f4             	mov    edx,DWORD PTR [ebp-0xc]
 804a6db:	8b 45 d0             	mov    eax,DWORD PTR [ebp-0x30]
 804a6de:	89 d1                	mov    ecx,edx
 804a6e0:	29 c1                	sub    ecx,eax
 804a6e2:	89 c8                	mov    eax,ecx
 804a6e4:	89 45 cc             	mov    DWORD PTR [ebp-0x34],eax
 804a6e7:	8b 45 14             	mov    eax,DWORD PTR [ebp+0x14]
 804a6ea:	8b 55 d0             	mov    edx,DWORD PTR [ebp-0x30]
 804a6ed:	01 d0                	add    eax,edx
 804a6ef:	89 45 c8             	mov    DWORD PTR [ebp-0x38],eax
 804a6f2:	8b 45 14             	mov    eax,DWORD PTR [ebp+0x14]
 804a6f5:	8b 55 cc             	mov    edx,DWORD PTR [ebp-0x34]
 804a6f8:	89 d3                	mov    ebx,edx
 804a6fa:	29 c3                	sub    ebx,eax
 804a6fc:	89 d8                	mov    eax,ebx
 804a6fe:	89 45 f0             	mov    DWORD PTR [ebp-0x10],eax
 804a701:	8b 45 14             	mov    eax,DWORD PTR [ebp+0x14]
 804a704:	89 c2                	mov    edx,eax
 804a706:	83 ca 03             	or     edx,0x3
 804a709:	8b 45 d0             	mov    eax,DWORD PTR [ebp-0x30]
 804a70c:	89 50 04             	mov    DWORD PTR [eax+0x4],edx
 804a70f:	8b 45 08             	mov    eax,DWORD PTR [ebp+0x8]
 804a712:	8b 40 18             	mov    eax,DWORD PTR [eax+0x18]
 804a715:	3b 45 f4             	cmp    eax,DWORD PTR [ebp-0xc]
 804a718:	75 36                	jne    804a750 <prepend_alloc+0xce>
 804a71a:	8b 45 08             	mov    eax,DWORD PTR [ebp+0x8]
 804a71d:	8b 50 0c             	mov    edx,DWORD PTR [eax+0xc]
 804a720:	8b 45 f0             	mov    eax,DWORD PTR [ebp-0x10]
 804a723:	01 c2                	add    edx,eax
 804a725:	8b 45 08             	mov    eax,DWORD PTR [ebp+0x8]
 804a728:	89 50 0c             	mov    DWORD PTR [eax+0xc],edx
 804a72b:	8b 45 08             	mov    eax,DWORD PTR [ebp+0x8]
 804a72e:	8b 40 0c             	mov    eax,DWORD PTR [eax+0xc]
 804a731:	89 45 c4             	mov    DWORD PTR [ebp-0x3c],eax
 804a734:	8b 45 08             	mov    eax,DWORD PTR [ebp+0x8]
 804a737:	8b 55 c8             	mov    edx,DWORD PTR [ebp-0x38]
 804a73a:	89 50 18             	mov    DWORD PTR [eax+0x18],edx
 804a73d:	8b 45 c4             	mov    eax,DWORD PTR [ebp-0x3c]
 804a740:	89 c2                	mov    edx,eax
 804a742:	83 ca 01             	or     edx,0x1
 804a745:	8b 45 c8             	mov    eax,DWORD PTR [ebp-0x38]
 804a748:	89 50 04             	mov    DWORD PTR [eax+0x4],edx
 804a74b:	e9 02 05 00 00       	jmp    804ac52 <prepend_alloc+0x5d0>
 804a750:	8b 45 08             	mov    eax,DWORD PTR [ebp+0x8]
 804a753:	8b 40 14             	mov    eax,DWORD PTR [eax+0x14]
 804a756:	3b 45 f4             	cmp    eax,DWORD PTR [ebp-0xc]
 804a759:	75 43                	jne    804a79e <prepend_alloc+0x11c>
 804a75b:	8b 45 08             	mov    eax,DWORD PTR [ebp+0x8]
 804a75e:	8b 50 08             	mov    edx,DWORD PTR [eax+0x8]
 804a761:	8b 45 f0             	mov    eax,DWORD PTR [ebp-0x10]
 804a764:	01 c2                	add    edx,eax
 804a766:	8b 45 08             	mov    eax,DWORD PTR [ebp+0x8]
 804a769:	89 50 08             	mov    DWORD PTR [eax+0x8],edx
 804a76c:	8b 45 08             	mov    eax,DWORD PTR [ebp+0x8]
 804a76f:	8b 40 08             	mov    eax,DWORD PTR [eax+0x8]
 804a772:	89 45 c0             	mov    DWORD PTR [ebp-0x40],eax
 804a775:	8b 45 08             	mov    eax,DWORD PTR [ebp+0x8]
 804a778:	8b 55 c8             	mov    edx,DWORD PTR [ebp-0x38]
 804a77b:	89 50 14             	mov    DWORD PTR [eax+0x14],edx
 804a77e:	8b 45 c0             	mov    eax,DWORD PTR [ebp-0x40]
 804a781:	89 c2                	mov    edx,eax
 804a783:	83 ca 01             	or     edx,0x1
 804a786:	8b 45 c8             	mov    eax,DWORD PTR [ebp-0x38]
 804a789:	89 50 04             	mov    DWORD PTR [eax+0x4],edx
 804a78c:	8b 45 c0             	mov    eax,DWORD PTR [ebp-0x40]
 804a78f:	8b 55 c8             	mov    edx,DWORD PTR [ebp-0x38]
 804a792:	01 c2                	add    edx,eax
 804a794:	8b 45 c0             	mov    eax,DWORD PTR [ebp-0x40]
 804a797:	89 02                	mov    DWORD PTR [edx],eax
 804a799:	e9 b4 04 00 00       	jmp    804ac52 <prepend_alloc+0x5d0>
 804a79e:	8b 45 f4             	mov    eax,DWORD PTR [ebp-0xc]
 804a7a1:	8b 40 04             	mov    eax,DWORD PTR [eax+0x4]
 804a7a4:	83 e0 03             	and    eax,0x3
 804a7a7:	83 f8 01             	cmp    eax,0x1
 804a7aa:	0f 85 fd 01 00 00    	jne    804a9ad <prepend_alloc+0x32b>
 804a7b0:	8b 45 f4             	mov    eax,DWORD PTR [ebp-0xc]
 804a7b3:	8b 40 04             	mov    eax,DWORD PTR [eax+0x4]
 804a7b6:	83 e0 f8             	and    eax,0xfffffff8
 804a7b9:	89 45 bc             	mov    DWORD PTR [ebp-0x44],eax
 804a7bc:	8b 45 bc             	mov    eax,DWORD PTR [ebp-0x44]
 804a7bf:	c1 e8 03             	shr    eax,0x3
 804a7c2:	83 f8 1f             	cmp    eax,0x1f
 804a7c5:	77 5d                	ja     804a824 <prepend_alloc+0x1a2>
 804a7c7:	8b 45 f4             	mov    eax,DWORD PTR [ebp-0xc]
 804a7ca:	8b 40 08             	mov    eax,DWORD PTR [eax+0x8]
 804a7cd:	89 45 b8             	mov    DWORD PTR [ebp-0x48],eax
 804a7d0:	8b 45 f4             	mov    eax,DWORD PTR [ebp-0xc]
 804a7d3:	8b 40 0c             	mov    eax,DWORD PTR [eax+0xc]
 804a7d6:	89 45 b4             	mov    DWORD PTR [ebp-0x4c],eax
 804a7d9:	8b 45 bc             	mov    eax,DWORD PTR [ebp-0x44]
 804a7dc:	c1 e8 03             	shr    eax,0x3
 804a7df:	89 45 b0             	mov    DWORD PTR [ebp-0x50],eax
 804a7e2:	8b 45 b8             	mov    eax,DWORD PTR [ebp-0x48]
 804a7e5:	3b 45 b4             	cmp    eax,DWORD PTR [ebp-0x4c]
 804a7e8:	75 23                	jne    804a80d <prepend_alloc+0x18b>
 804a7ea:	8b 45 08             	mov    eax,DWORD PTR [ebp+0x8]
 804a7ed:	8b 10                	mov    edx,DWORD PTR [eax]
 804a7ef:	8b 45 b0             	mov    eax,DWORD PTR [ebp-0x50]
 804a7f2:	bb 01 00 00 00       	mov    ebx,0x1
 804a7f7:	89 de                	mov    esi,ebx
 804a7f9:	89 c1                	mov    ecx,eax
 804a7fb:	d3 e6                	shl    esi,cl
 804a7fd:	89 f0                	mov    eax,esi
 804a7ff:	f7 d0                	not    eax
 804a801:	21 c2                	and    edx,eax
 804a803:	8b 45 08             	mov    eax,DWORD PTR [ebp+0x8]
 804a806:	89 10                	mov    DWORD PTR [eax],edx
 804a808:	e9 94 01 00 00       	jmp    804a9a1 <prepend_alloc+0x31f>
 804a80d:	8b 45 b8             	mov    eax,DWORD PTR [ebp-0x48]
 804a810:	8b 55 b4             	mov    edx,DWORD PTR [ebp-0x4c]
 804a813:	89 50 0c             	mov    DWORD PTR [eax+0xc],edx
 804a816:	8b 45 b4             	mov    eax,DWORD PTR [ebp-0x4c]
 804a819:	8b 55 b8             	mov    edx,DWORD PTR [ebp-0x48]
 804a81c:	89 50 08             	mov    DWORD PTR [eax+0x8],edx
 804a81f:	e9 7d 01 00 00       	jmp    804a9a1 <prepend_alloc+0x31f>
 804a824:	8b 45 f4             	mov    eax,DWORD PTR [ebp-0xc]
 804a827:	89 45 ac             	mov    DWORD PTR [ebp-0x54],eax
 804a82a:	8b 45 ac             	mov    eax,DWORD PTR [ebp-0x54]
 804a82d:	8b 40 18             	mov    eax,DWORD PTR [eax+0x18]
 804a830:	89 45 a8             	mov    DWORD PTR [ebp-0x58],eax
 804a833:	8b 45 ac             	mov    eax,DWORD PTR [ebp-0x54]
 804a836:	8b 40 0c             	mov    eax,DWORD PTR [eax+0xc]
 804a839:	3b 45 ac             	cmp    eax,DWORD PTR [ebp-0x54]
 804a83c:	74 26                	je     804a864 <prepend_alloc+0x1e2>
 804a83e:	8b 45 ac             	mov    eax,DWORD PTR [ebp-0x54]
 804a841:	8b 40 08             	mov    eax,DWORD PTR [eax+0x8]
 804a844:	89 45 a4             	mov    DWORD PTR [ebp-0x5c],eax
 804a847:	8b 45 ac             	mov    eax,DWORD PTR [ebp-0x54]
 804a84a:	8b 40 0c             	mov    eax,DWORD PTR [eax+0xc]
 804a84d:	89 45 ec             	mov    DWORD PTR [ebp-0x14],eax
 804a850:	8b 45 a4             	mov    eax,DWORD PTR [ebp-0x5c]
 804a853:	8b 55 ec             	mov    edx,DWORD PTR [ebp-0x14]
 804a856:	89 50 0c             	mov    DWORD PTR [eax+0xc],edx
 804a859:	8b 45 ec             	mov    eax,DWORD PTR [ebp-0x14]
 804a85c:	8b 55 a4             	mov    edx,DWORD PTR [ebp-0x5c]
 804a85f:	89 50 08             	mov    DWORD PTR [eax+0x8],edx
 804a862:	eb 6b                	jmp    804a8cf <prepend_alloc+0x24d>
 804a864:	8b 45 ac             	mov    eax,DWORD PTR [ebp-0x54]
 804a867:	83 c0 14             	add    eax,0x14
 804a86a:	89 45 e8             	mov    DWORD PTR [ebp-0x18],eax
 804a86d:	8b 45 e8             	mov    eax,DWORD PTR [ebp-0x18]
 804a870:	8b 00                	mov    eax,DWORD PTR [eax]
 804a872:	89 45 ec             	mov    DWORD PTR [ebp-0x14],eax
 804a875:	83 7d ec 00          	cmp    DWORD PTR [ebp-0x14],0x0
 804a879:	75 27                	jne    804a8a2 <prepend_alloc+0x220>
 804a87b:	8b 45 ac             	mov    eax,DWORD PTR [ebp-0x54]
 804a87e:	83 c0 10             	add    eax,0x10
 804a881:	89 45 e8             	mov    DWORD PTR [ebp-0x18],eax
 804a884:	8b 45 e8             	mov    eax,DWORD PTR [ebp-0x18]
 804a887:	8b 00                	mov    eax,DWORD PTR [eax]
 804a889:	89 45 ec             	mov    DWORD PTR [ebp-0x14],eax
 804a88c:	83 7d ec 00          	cmp    DWORD PTR [ebp-0x14],0x0
 804a890:	74 3d                	je     804a8cf <prepend_alloc+0x24d>
 804a892:	eb 0e                	jmp    804a8a2 <prepend_alloc+0x220>
 804a894:	8b 45 e4             	mov    eax,DWORD PTR [ebp-0x1c]
 804a897:	89 45 e8             	mov    DWORD PTR [ebp-0x18],eax
 804a89a:	8b 45 e8             	mov    eax,DWORD PTR [ebp-0x18]
 804a89d:	8b 00                	mov    eax,DWORD PTR [eax]
 804a89f:	89 45 ec             	mov    DWORD PTR [ebp-0x14],eax
 804a8a2:	8b 45 ec             	mov    eax,DWORD PTR [ebp-0x14]
 804a8a5:	83 c0 14             	add    eax,0x14
 804a8a8:	89 45 e4             	mov    DWORD PTR [ebp-0x1c],eax
 804a8ab:	8b 45 e4             	mov    eax,DWORD PTR [ebp-0x1c]
 804a8ae:	8b 00                	mov    eax,DWORD PTR [eax]
 804a8b0:	85 c0                	test   eax,eax
 804a8b2:	75 e0                	jne    804a894 <prepend_alloc+0x212>
 804a8b4:	8b 45 ec             	mov    eax,DWORD PTR [ebp-0x14]
 804a8b7:	83 c0 10             	add    eax,0x10
 804a8ba:	89 45 e4             	mov    DWORD PTR [ebp-0x1c],eax
 804a8bd:	8b 45 e4             	mov    eax,DWORD PTR [ebp-0x1c]
 804a8c0:	8b 00                	mov    eax,DWORD PTR [eax]
 804a8c2:	85 c0                	test   eax,eax
 804a8c4:	75 ce                	jne    804a894 <prepend_alloc+0x212>
 804a8c6:	8b 45 e8             	mov    eax,DWORD PTR [ebp-0x18]
 804a8c9:	c7 00 00 00 00 00    	mov    DWORD PTR [eax],0x0
 804a8cf:	83 7d a8 00          	cmp    DWORD PTR [ebp-0x58],0x0
 804a8d3:	0f 84 c8 00 00 00    	je     804a9a1 <prepend_alloc+0x31f>
 804a8d9:	8b 45 ac             	mov    eax,DWORD PTR [ebp-0x54]
 804a8dc:	8b 40 1c             	mov    eax,DWORD PTR [eax+0x1c]
 804a8df:	83 c0 4c             	add    eax,0x4c
 804a8e2:	8d 14 85 00 00 00 00 	lea    edx,[eax*4+0x0]
 804a8e9:	8b 45 08             	mov    eax,DWORD PTR [ebp+0x8]
 804a8ec:	01 d0                	add    eax,edx
 804a8ee:	89 45 a0             	mov    DWORD PTR [ebp-0x60],eax
 804a8f1:	8b 45 a0             	mov    eax,DWORD PTR [ebp-0x60]
 804a8f4:	8b 00                	mov    eax,DWORD PTR [eax]
 804a8f6:	3b 45 ac             	cmp    eax,DWORD PTR [ebp-0x54]
 804a8f9:	75 36                	jne    804a931 <prepend_alloc+0x2af>
 804a8fb:	8b 45 a0             	mov    eax,DWORD PTR [ebp-0x60]
 804a8fe:	8b 55 ec             	mov    edx,DWORD PTR [ebp-0x14]
 804a901:	89 10                	mov    DWORD PTR [eax],edx
 804a903:	8b 45 a0             	mov    eax,DWORD PTR [ebp-0x60]
 804a906:	8b 00                	mov    eax,DWORD PTR [eax]
 804a908:	85 c0                	test   eax,eax
 804a90a:	75 44                	jne    804a950 <prepend_alloc+0x2ce>
 804a90c:	8b 45 08             	mov    eax,DWORD PTR [ebp+0x8]
 804a90f:	8b 50 04             	mov    edx,DWORD PTR [eax+0x4]
 804a912:	8b 45 ac             	mov    eax,DWORD PTR [ebp-0x54]
 804a915:	8b 40 1c             	mov    eax,DWORD PTR [eax+0x1c]
 804a918:	bb 01 00 00 00       	mov    ebx,0x1
 804a91d:	89 de                	mov    esi,ebx
 804a91f:	89 c1                	mov    ecx,eax
 804a921:	d3 e6                	shl    esi,cl
 804a923:	89 f0                	mov    eax,esi
 804a925:	f7 d0                	not    eax
 804a927:	21 c2                	and    edx,eax
 804a929:	8b 45 08             	mov    eax,DWORD PTR [ebp+0x8]
 804a92c:	89 50 04             	mov    DWORD PTR [eax+0x4],edx
 804a92f:	eb 1f                	jmp    804a950 <prepend_alloc+0x2ce>
 804a931:	8b 45 a8             	mov    eax,DWORD PTR [ebp-0x58]
 804a934:	8b 40 10             	mov    eax,DWORD PTR [eax+0x10]
 804a937:	3b 45 ac             	cmp    eax,DWORD PTR [ebp-0x54]
 804a93a:	75 0b                	jne    804a947 <prepend_alloc+0x2c5>
 804a93c:	8b 45 a8             	mov    eax,DWORD PTR [ebp-0x58]
 804a93f:	8b 55 ec             	mov    edx,DWORD PTR [ebp-0x14]
 804a942:	89 50 10             	mov    DWORD PTR [eax+0x10],edx
 804a945:	eb 09                	jmp    804a950 <prepend_alloc+0x2ce>
 804a947:	8b 45 a8             	mov    eax,DWORD PTR [ebp-0x58]
 804a94a:	8b 55 ec             	mov    edx,DWORD PTR [ebp-0x14]
 804a94d:	89 50 14             	mov    DWORD PTR [eax+0x14],edx
 804a950:	83 7d ec 00          	cmp    DWORD PTR [ebp-0x14],0x0
 804a954:	74 4b                	je     804a9a1 <prepend_alloc+0x31f>
 804a956:	8b 45 ec             	mov    eax,DWORD PTR [ebp-0x14]
 804a959:	8b 55 a8             	mov    edx,DWORD PTR [ebp-0x58]
 804a95c:	89 50 18             	mov    DWORD PTR [eax+0x18],edx
 804a95f:	8b 45 ac             	mov    eax,DWORD PTR [ebp-0x54]
 804a962:	8b 40 10             	mov    eax,DWORD PTR [eax+0x10]
 804a965:	89 45 9c             	mov    DWORD PTR [ebp-0x64],eax
 804a968:	83 7d 9c 00          	cmp    DWORD PTR [ebp-0x64],0x0
 804a96c:	74 12                	je     804a980 <prepend_alloc+0x2fe>
 804a96e:	8b 45 ec             	mov    eax,DWORD PTR [ebp-0x14]
 804a971:	8b 55 9c             	mov    edx,DWORD PTR [ebp-0x64]
 804a974:	89 50 10             	mov    DWORD PTR [eax+0x10],edx
 804a977:	8b 45 9c             	mov    eax,DWORD PTR [ebp-0x64]
 804a97a:	8b 55 ec             	mov    edx,DWORD PTR [ebp-0x14]
 804a97d:	89 50 18             	mov    DWORD PTR [eax+0x18],edx
 804a980:	8b 45 ac             	mov    eax,DWORD PTR [ebp-0x54]
 804a983:	8b 40 14             	mov    eax,DWORD PTR [eax+0x14]
 804a986:	89 45 98             	mov    DWORD PTR [ebp-0x68],eax
 804a989:	83 7d 98 00          	cmp    DWORD PTR [ebp-0x68],0x0
 804a98d:	74 12                	je     804a9a1 <prepend_alloc+0x31f>
 804a98f:	8b 45 ec             	mov    eax,DWORD PTR [ebp-0x14]
 804a992:	8b 55 98             	mov    edx,DWORD PTR [ebp-0x68]
 804a995:	89 50 14             	mov    DWORD PTR [eax+0x14],edx
 804a998:	8b 45 98             	mov    eax,DWORD PTR [ebp-0x68]
 804a99b:	8b 55 ec             	mov    edx,DWORD PTR [ebp-0x14]
 804a99e:	89 50 18             	mov    DWORD PTR [eax+0x18],edx
 804a9a1:	8b 45 bc             	mov    eax,DWORD PTR [ebp-0x44]
 804a9a4:	01 45 f4             	add    DWORD PTR [ebp-0xc],eax
 804a9a7:	8b 45 bc             	mov    eax,DWORD PTR [ebp-0x44]
 804a9aa:	01 45 f0             	add    DWORD PTR [ebp-0x10],eax
 804a9ad:	8b 45 f4             	mov    eax,DWORD PTR [ebp-0xc]
 804a9b0:	8b 40 04             	mov    eax,DWORD PTR [eax+0x4]
 804a9b3:	89 c2                	mov    edx,eax
 804a9b5:	83 e2 fe             	and    edx,0xfffffffe
 804a9b8:	8b 45 f4             	mov    eax,DWORD PTR [ebp-0xc]
 804a9bb:	89 50 04             	mov    DWORD PTR [eax+0x4],edx
 804a9be:	8b 45 f0             	mov    eax,DWORD PTR [ebp-0x10]
 804a9c1:	89 c2                	mov    edx,eax
 804a9c3:	83 ca 01             	or     edx,0x1
 804a9c6:	8b 45 c8             	mov    eax,DWORD PTR [ebp-0x38]
 804a9c9:	89 50 04             	mov    DWORD PTR [eax+0x4],edx
 804a9cc:	8b 45 f0             	mov    eax,DWORD PTR [ebp-0x10]
 804a9cf:	8b 55 c8             	mov    edx,DWORD PTR [ebp-0x38]
 804a9d2:	01 c2                	add    edx,eax
 804a9d4:	8b 45 f0             	mov    eax,DWORD PTR [ebp-0x10]
 804a9d7:	89 02                	mov    DWORD PTR [edx],eax
 804a9d9:	8b 45 f0             	mov    eax,DWORD PTR [ebp-0x10]
 804a9dc:	c1 e8 03             	shr    eax,0x3
 804a9df:	83 f8 1f             	cmp    eax,0x1f
 804a9e2:	0f 87 94 00 00 00    	ja     804aa7c <prepend_alloc+0x3fa>
 804a9e8:	8b 45 f0             	mov    eax,DWORD PTR [ebp-0x10]
 804a9eb:	c1 e8 03             	shr    eax,0x3
 804a9ee:	89 45 94             	mov    DWORD PTR [ebp-0x6c],eax
 804a9f1:	8b 45 94             	mov    eax,DWORD PTR [ebp-0x6c]
 804a9f4:	01 c0                	add    eax,eax
 804a9f6:	83 c0 08             	add    eax,0x8
 804a9f9:	8d 14 85 00 00 00 00 	lea    edx,[eax*4+0x0]
 804aa00:	8b 45 08             	mov    eax,DWORD PTR [ebp+0x8]
 804aa03:	01 d0                	add    eax,edx
 804aa05:	83 c0 08             	add    eax,0x8
 804aa08:	89 45 90             	mov    DWORD PTR [ebp-0x70],eax
 804aa0b:	8b 45 90             	mov    eax,DWORD PTR [ebp-0x70]
 804aa0e:	89 45 e0             	mov    DWORD PTR [ebp-0x20],eax
 804aa11:	8b 45 08             	mov    eax,DWORD PTR [ebp+0x8]
 804aa14:	8b 10                	mov    edx,DWORD PTR [eax]
 804aa16:	8b 45 94             	mov    eax,DWORD PTR [ebp-0x6c]
 804aa19:	bb 01 00 00 00       	mov    ebx,0x1
 804aa1e:	89 de                	mov    esi,ebx
 804aa20:	89 c1                	mov    ecx,eax
 804aa22:	d3 e6                	shl    esi,cl
 804aa24:	89 f0                	mov    eax,esi
 804aa26:	21 d0                	and    eax,edx
 804aa28:	85 c0                	test   eax,eax
 804aa2a:	75 1e                	jne    804aa4a <prepend_alloc+0x3c8>
 804aa2c:	8b 45 08             	mov    eax,DWORD PTR [ebp+0x8]
 804aa2f:	8b 10                	mov    edx,DWORD PTR [eax]
 804aa31:	8b 45 94             	mov    eax,DWORD PTR [ebp-0x6c]
 804aa34:	bb 01 00 00 00       	mov    ebx,0x1
 804aa39:	89 de                	mov    esi,ebx
 804aa3b:	89 c1                	mov    ecx,eax
 804aa3d:	d3 e6                	shl    esi,cl
 804aa3f:	89 f0                	mov    eax,esi
 804aa41:	09 c2                	or     edx,eax
 804aa43:	8b 45 08             	mov    eax,DWORD PTR [ebp+0x8]
 804aa46:	89 10                	mov    DWORD PTR [eax],edx
 804aa48:	eb 09                	jmp    804aa53 <prepend_alloc+0x3d1>
 804aa4a:	8b 45 90             	mov    eax,DWORD PTR [ebp-0x70]
 804aa4d:	8b 40 08             	mov    eax,DWORD PTR [eax+0x8]
 804aa50:	89 45 e0             	mov    DWORD PTR [ebp-0x20],eax
 804aa53:	8b 45 90             	mov    eax,DWORD PTR [ebp-0x70]
 804aa56:	8b 55 c8             	mov    edx,DWORD PTR [ebp-0x38]
 804aa59:	89 50 08             	mov    DWORD PTR [eax+0x8],edx
 804aa5c:	8b 45 e0             	mov    eax,DWORD PTR [ebp-0x20]
 804aa5f:	8b 55 c8             	mov    edx,DWORD PTR [ebp-0x38]
 804aa62:	89 50 0c             	mov    DWORD PTR [eax+0xc],edx
 804aa65:	8b 45 c8             	mov    eax,DWORD PTR [ebp-0x38]
 804aa68:	8b 55 e0             	mov    edx,DWORD PTR [ebp-0x20]
 804aa6b:	89 50 08             	mov    DWORD PTR [eax+0x8],edx
 804aa6e:	8b 45 c8             	mov    eax,DWORD PTR [ebp-0x38]
 804aa71:	8b 55 90             	mov    edx,DWORD PTR [ebp-0x70]
 804aa74:	89 50 0c             	mov    DWORD PTR [eax+0xc],edx
 804aa77:	e9 d6 01 00 00       	jmp    804ac52 <prepend_alloc+0x5d0>
 804aa7c:	8b 45 c8             	mov    eax,DWORD PTR [ebp-0x38]
 804aa7f:	89 45 8c             	mov    DWORD PTR [ebp-0x74],eax
 804aa82:	8b 45 f0             	mov    eax,DWORD PTR [ebp-0x10]
 804aa85:	c1 e8 08             	shr    eax,0x8
 804aa88:	89 45 88             	mov    DWORD PTR [ebp-0x78],eax
 804aa8b:	83 7d 88 00          	cmp    DWORD PTR [ebp-0x78],0x0
 804aa8f:	75 09                	jne    804aa9a <prepend_alloc+0x418>
 804aa91:	c7 45 dc 00 00 00 00 	mov    DWORD PTR [ebp-0x24],0x0
 804aa98:	eb 38                	jmp    804aad2 <prepend_alloc+0x450>
 804aa9a:	81 7d 88 ff ff 00 00 	cmp    DWORD PTR [ebp-0x78],0xffff
 804aaa1:	76 09                	jbe    804aaac <prepend_alloc+0x42a>
 804aaa3:	c7 45 dc 1f 00 00 00 	mov    DWORD PTR [ebp-0x24],0x1f
 804aaaa:	eb 26                	jmp    804aad2 <prepend_alloc+0x450>
 804aaac:	0f bd 5d 88          	bsr    ebx,DWORD PTR [ebp-0x78]
 804aab0:	89 5d 84             	mov    DWORD PTR [ebp-0x7c],ebx
 804aab3:	8b 45 84             	mov    eax,DWORD PTR [ebp-0x7c]
 804aab6:	8d 1c 00             	lea    ebx,[eax+eax*1]
 804aab9:	8b 45 84             	mov    eax,DWORD PTR [ebp-0x7c]
 804aabc:	83 c0 07             	add    eax,0x7
 804aabf:	8b 55 f0             	mov    edx,DWORD PTR [ebp-0x10]
 804aac2:	89 d6                	mov    esi,edx
 804aac4:	89 c1                	mov    ecx,eax
 804aac6:	d3 ee                	shr    esi,cl
 804aac8:	89 f0                	mov    eax,esi
 804aaca:	83 e0 01             	and    eax,0x1
 804aacd:	01 d8                	add    eax,ebx
 804aacf:	89 45 dc             	mov    DWORD PTR [ebp-0x24],eax
 804aad2:	8b 45 dc             	mov    eax,DWORD PTR [ebp-0x24]
 804aad5:	83 c0 4c             	add    eax,0x4c
 804aad8:	8d 14 85 00 00 00 00 	lea    edx,[eax*4+0x0]
 804aadf:	8b 45 08             	mov    eax,DWORD PTR [ebp+0x8]
 804aae2:	01 d0                	add    eax,edx
 804aae4:	89 45 80             	mov    DWORD PTR [ebp-0x80],eax
 804aae7:	8b 45 8c             	mov    eax,DWORD PTR [ebp-0x74]
 804aaea:	8b 55 dc             	mov    edx,DWORD PTR [ebp-0x24]
 804aaed:	89 50 1c             	mov    DWORD PTR [eax+0x1c],edx
 804aaf0:	8b 45 8c             	mov    eax,DWORD PTR [ebp-0x74]
 804aaf3:	c7 40 14 00 00 00 00 	mov    DWORD PTR [eax+0x14],0x0
 804aafa:	8b 45 8c             	mov    eax,DWORD PTR [ebp-0x74]
 804aafd:	8b 50 14             	mov    edx,DWORD PTR [eax+0x14]
 804ab00:	8b 45 8c             	mov    eax,DWORD PTR [ebp-0x74]
 804ab03:	89 50 10             	mov    DWORD PTR [eax+0x10],edx
 804ab06:	8b 45 08             	mov    eax,DWORD PTR [ebp+0x8]
 804ab09:	8b 50 04             	mov    edx,DWORD PTR [eax+0x4]
 804ab0c:	8b 45 dc             	mov    eax,DWORD PTR [ebp-0x24]
 804ab0f:	bb 01 00 00 00       	mov    ebx,0x1
 804ab14:	89 de                	mov    esi,ebx
 804ab16:	89 c1                	mov    ecx,eax
 804ab18:	d3 e6                	shl    esi,cl
 804ab1a:	89 f0                	mov    eax,esi
 804ab1c:	21 d0                	and    eax,edx
 804ab1e:	85 c0                	test   eax,eax
 804ab20:	75 49                	jne    804ab6b <prepend_alloc+0x4e9>
 804ab22:	8b 45 08             	mov    eax,DWORD PTR [ebp+0x8]
 804ab25:	8b 50 04             	mov    edx,DWORD PTR [eax+0x4]
 804ab28:	8b 45 dc             	mov    eax,DWORD PTR [ebp-0x24]
 804ab2b:	bb 01 00 00 00       	mov    ebx,0x1
 804ab30:	89 de                	mov    esi,ebx
 804ab32:	89 c1                	mov    ecx,eax
 804ab34:	d3 e6                	shl    esi,cl
 804ab36:	89 f0                	mov    eax,esi
 804ab38:	09 c2                	or     edx,eax
 804ab3a:	8b 45 08             	mov    eax,DWORD PTR [ebp+0x8]
 804ab3d:	89 50 04             	mov    DWORD PTR [eax+0x4],edx
 804ab40:	8b 45 80             	mov    eax,DWORD PTR [ebp-0x80]
 804ab43:	8b 55 8c             	mov    edx,DWORD PTR [ebp-0x74]
 804ab46:	89 10                	mov    DWORD PTR [eax],edx
 804ab48:	8b 45 8c             	mov    eax,DWORD PTR [ebp-0x74]
 804ab4b:	8b 55 80             	mov    edx,DWORD PTR [ebp-0x80]
 804ab4e:	89 50 18             	mov    DWORD PTR [eax+0x18],edx
 804ab51:	8b 45 8c             	mov    eax,DWORD PTR [ebp-0x74]
 804ab54:	8b 55 8c             	mov    edx,DWORD PTR [ebp-0x74]
 804ab57:	89 50 0c             	mov    DWORD PTR [eax+0xc],edx
 804ab5a:	8b 45 8c             	mov    eax,DWORD PTR [ebp-0x74]
 804ab5d:	8b 50 0c             	mov    edx,DWORD PTR [eax+0xc]
 804ab60:	8b 45 8c             	mov    eax,DWORD PTR [ebp-0x74]
 804ab63:	89 50 08             	mov    DWORD PTR [eax+0x8],edx
 804ab66:	e9 e7 00 00 00       	jmp    804ac52 <prepend_alloc+0x5d0>
 804ab6b:	8b 45 80             	mov    eax,DWORD PTR [ebp-0x80]
 804ab6e:	8b 00                	mov    eax,DWORD PTR [eax]
 804ab70:	89 45 d8             	mov    DWORD PTR [ebp-0x28],eax
 804ab73:	83 7d dc 1f          	cmp    DWORD PTR [ebp-0x24],0x1f
 804ab77:	74 10                	je     804ab89 <prepend_alloc+0x507>
 804ab79:	8b 45 dc             	mov    eax,DWORD PTR [ebp-0x24]
 804ab7c:	89 c2                	mov    edx,eax
 804ab7e:	d1 ea                	shr    edx,1
 804ab80:	b8 19 00 00 00       	mov    eax,0x19
 804ab85:	29 d0                	sub    eax,edx
 804ab87:	eb 05                	jmp    804ab8e <prepend_alloc+0x50c>
 804ab89:	b8 00 00 00 00       	mov    eax,0x0
 804ab8e:	8b 55 f0             	mov    edx,DWORD PTR [ebp-0x10]
 804ab91:	89 d3                	mov    ebx,edx
 804ab93:	89 c1                	mov    ecx,eax
 804ab95:	d3 e3                	shl    ebx,cl
 804ab97:	89 d8                	mov    eax,ebx
 804ab99:	89 45 d4             	mov    DWORD PTR [ebp-0x2c],eax
 804ab9c:	8b 45 d8             	mov    eax,DWORD PTR [ebp-0x28]
 804ab9f:	8b 40 04             	mov    eax,DWORD PTR [eax+0x4]
 804aba2:	83 e0 f8             	and    eax,0xfffffff8
 804aba5:	3b 45 f0             	cmp    eax,DWORD PTR [ebp-0x10]
 804aba8:	74 62                	je     804ac0c <prepend_alloc+0x58a>
 804abaa:	8b 45 d4             	mov    eax,DWORD PTR [ebp-0x2c]
 804abad:	c1 e8 1f             	shr    eax,0x1f
 804abb0:	83 c0 04             	add    eax,0x4
 804abb3:	8d 14 85 00 00 00 00 	lea    edx,[eax*4+0x0]
 804abba:	8b 45 d8             	mov    eax,DWORD PTR [ebp-0x28]
 804abbd:	01 d0                	add    eax,edx
 804abbf:	89 85 7c ff ff ff    	mov    DWORD PTR [ebp-0x84],eax
 804abc5:	d1 65 d4             	shl    DWORD PTR [ebp-0x2c],1
 804abc8:	8b 85 7c ff ff ff    	mov    eax,DWORD PTR [ebp-0x84]
 804abce:	8b 00                	mov    eax,DWORD PTR [eax]
 804abd0:	85 c0                	test   eax,eax
 804abd2:	74 0d                	je     804abe1 <prepend_alloc+0x55f>
 804abd4:	8b 85 7c ff ff ff    	mov    eax,DWORD PTR [ebp-0x84]
 804abda:	8b 00                	mov    eax,DWORD PTR [eax]
 804abdc:	89 45 d8             	mov    DWORD PTR [ebp-0x28],eax
 804abdf:	eb bb                	jmp    804ab9c <prepend_alloc+0x51a>
 804abe1:	8b 85 7c ff ff ff    	mov    eax,DWORD PTR [ebp-0x84]
 804abe7:	8b 55 8c             	mov    edx,DWORD PTR [ebp-0x74]
 804abea:	89 10                	mov    DWORD PTR [eax],edx
 804abec:	8b 45 8c             	mov    eax,DWORD PTR [ebp-0x74]
 804abef:	8b 55 d8             	mov    edx,DWORD PTR [ebp-0x28]
 804abf2:	89 50 18             	mov    DWORD PTR [eax+0x18],edx
 804abf5:	8b 45 8c             	mov    eax,DWORD PTR [ebp-0x74]
 804abf8:	8b 55 8c             	mov    edx,DWORD PTR [ebp-0x74]
 804abfb:	89 50 0c             	mov    DWORD PTR [eax+0xc],edx
 804abfe:	8b 45 8c             	mov    eax,DWORD PTR [ebp-0x74]
 804ac01:	8b 50 0c             	mov    edx,DWORD PTR [eax+0xc]
 804ac04:	8b 45 8c             	mov    eax,DWORD PTR [ebp-0x74]
 804ac07:	89 50 08             	mov    DWORD PTR [eax+0x8],edx
 804ac0a:	eb 46                	jmp    804ac52 <prepend_alloc+0x5d0>
 804ac0c:	8b 45 d8             	mov    eax,DWORD PTR [ebp-0x28]
 804ac0f:	8b 40 08             	mov    eax,DWORD PTR [eax+0x8]
 804ac12:	89 85 78 ff ff ff    	mov    DWORD PTR [ebp-0x88],eax
 804ac18:	8b 85 78 ff ff ff    	mov    eax,DWORD PTR [ebp-0x88]
 804ac1e:	8b 55 8c             	mov    edx,DWORD PTR [ebp-0x74]
 804ac21:	89 50 0c             	mov    DWORD PTR [eax+0xc],edx
 804ac24:	8b 85 78 ff ff ff    	mov    eax,DWORD PTR [ebp-0x88]
 804ac2a:	8b 50 0c             	mov    edx,DWORD PTR [eax+0xc]
 804ac2d:	8b 45 d8             	mov    eax,DWORD PTR [ebp-0x28]
 804ac30:	89 50 08             	mov    DWORD PTR [eax+0x8],edx
 804ac33:	8b 45 8c             	mov    eax,DWORD PTR [ebp-0x74]
 804ac36:	8b 95 78 ff ff ff    	mov    edx,DWORD PTR [ebp-0x88]
 804ac3c:	89 50 08             	mov    DWORD PTR [eax+0x8],edx
 804ac3f:	8b 45 8c             	mov    eax,DWORD PTR [ebp-0x74]
 804ac42:	8b 55 d8             	mov    edx,DWORD PTR [ebp-0x28]
 804ac45:	89 50 0c             	mov    DWORD PTR [eax+0xc],edx
 804ac48:	8b 45 8c             	mov    eax,DWORD PTR [ebp-0x74]
 804ac4b:	c7 40 18 00 00 00 00 	mov    DWORD PTR [eax+0x18],0x0
 804ac52:	8b 45 d0             	mov    eax,DWORD PTR [ebp-0x30]
 804ac55:	83 c0 08             	add    eax,0x8
 804ac58:	83 ec 80             	sub    esp,0xffffff80
 804ac5b:	5b                   	pop    ebx
 804ac5c:	5e                   	pop    esi
 804ac5d:	5d                   	pop    ebp
 804ac5e:	c3                   	ret    

0804ac5f <add_segment>:
 804ac5f:	55                   	push   ebp
 804ac60:	89 e5                	mov    ebp,esp
 804ac62:	56                   	push   esi
 804ac63:	53                   	push   ebx
 804ac64:	81 ec 8c 00 00 00    	sub    esp,0x8c
 804ac6a:	8b 45 08             	mov    eax,DWORD PTR [ebp+0x8]
 804ac6d:	8b 40 18             	mov    eax,DWORD PTR [eax+0x18]
 804ac70:	89 45 dc             	mov    DWORD PTR [ebp-0x24],eax
 804ac73:	8b 45 dc             	mov    eax,DWORD PTR [ebp-0x24]
 804ac76:	89 44 24 04          	mov    DWORD PTR [esp+0x4],eax
 804ac7a:	8b 45 08             	mov    eax,DWORD PTR [ebp+0x8]
 804ac7d:	89 04 24             	mov    DWORD PTR [esp],eax
 804ac80:	e8 bf f1 ff ff       	call   8049e44 <segment_holding>
 804ac85:	89 45 d8             	mov    DWORD PTR [ebp-0x28],eax
 804ac88:	8b 45 d8             	mov    eax,DWORD PTR [ebp-0x28]
 804ac8b:	8b 10                	mov    edx,DWORD PTR [eax]
 804ac8d:	8b 45 d8             	mov    eax,DWORD PTR [ebp-0x28]
 804ac90:	8b 40 04             	mov    eax,DWORD PTR [eax+0x4]
 804ac93:	01 d0                	add    eax,edx
 804ac95:	89 45 d4             	mov    DWORD PTR [ebp-0x2c],eax
 804ac98:	c7 45 d0 18 00 00 00 	mov    DWORD PTR [ebp-0x30],0x18
 804ac9f:	b8 e9 ff ff ff       	mov    eax,0xffffffe9
 804aca4:	89 c2                	mov    edx,eax
 804aca6:	2b 55 d0             	sub    edx,DWORD PTR [ebp-0x30]
 804aca9:	8b 45 d4             	mov    eax,DWORD PTR [ebp-0x2c]
 804acac:	01 d0                	add    eax,edx
 804acae:	89 45 cc             	mov    DWORD PTR [ebp-0x34],eax
 804acb1:	8b 45 cc             	mov    eax,DWORD PTR [ebp-0x34]
 804acb4:	83 c0 08             	add    eax,0x8
 804acb7:	83 e0 07             	and    eax,0x7
 804acba:	85 c0                	test   eax,eax
 804acbc:	74 0d                	je     804accb <add_segment+0x6c>
 804acbe:	8b 45 cc             	mov    eax,DWORD PTR [ebp-0x34]
 804acc1:	83 c0 08             	add    eax,0x8
 804acc4:	f7 d8                	neg    eax
 804acc6:	83 e0 07             	and    eax,0x7
 804acc9:	eb 05                	jmp    804acd0 <add_segment+0x71>
 804accb:	b8 00 00 00 00       	mov    eax,0x0
 804acd0:	89 45 c8             	mov    DWORD PTR [ebp-0x38],eax
 804acd3:	8b 45 c8             	mov    eax,DWORD PTR [ebp-0x38]
 804acd6:	8b 55 cc             	mov    edx,DWORD PTR [ebp-0x34]
 804acd9:	01 d0                	add    eax,edx
 804acdb:	89 45 c4             	mov    DWORD PTR [ebp-0x3c],eax
 804acde:	8b 45 dc             	mov    eax,DWORD PTR [ebp-0x24]
 804ace1:	83 c0 10             	add    eax,0x10
 804ace4:	3b 45 c4             	cmp    eax,DWORD PTR [ebp-0x3c]
 804ace7:	76 05                	jbe    804acee <add_segment+0x8f>
 804ace9:	8b 45 dc             	mov    eax,DWORD PTR [ebp-0x24]
 804acec:	eb 03                	jmp    804acf1 <add_segment+0x92>
 804acee:	8b 45 c4             	mov    eax,DWORD PTR [ebp-0x3c]
 804acf1:	89 45 c0             	mov    DWORD PTR [ebp-0x40],eax
 804acf4:	8b 45 c0             	mov    eax,DWORD PTR [ebp-0x40]
 804acf7:	89 45 bc             	mov    DWORD PTR [ebp-0x44],eax
 804acfa:	8b 45 bc             	mov    eax,DWORD PTR [ebp-0x44]
 804acfd:	83 c0 08             	add    eax,0x8
 804ad00:	89 45 b8             	mov    DWORD PTR [ebp-0x48],eax
 804ad03:	8b 45 d0             	mov    eax,DWORD PTR [ebp-0x30]
 804ad06:	8b 55 bc             	mov    edx,DWORD PTR [ebp-0x44]
 804ad09:	01 d0                	add    eax,edx
 804ad0b:	89 45 b4             	mov    DWORD PTR [ebp-0x4c],eax
 804ad0e:	8b 45 b4             	mov    eax,DWORD PTR [ebp-0x4c]
 804ad11:	89 45 f4             	mov    DWORD PTR [ebp-0xc],eax
 804ad14:	c7 45 f0 00 00 00 00 	mov    DWORD PTR [ebp-0x10],0x0
 804ad1b:	8b 45 10             	mov    eax,DWORD PTR [ebp+0x10]
 804ad1e:	83 e8 28             	sub    eax,0x28
 804ad21:	89 44 24 08          	mov    DWORD PTR [esp+0x8],eax
 804ad25:	8b 45 0c             	mov    eax,DWORD PTR [ebp+0xc]
 804ad28:	89 44 24 04          	mov    DWORD PTR [esp+0x4],eax
 804ad2c:	8b 45 08             	mov    eax,DWORD PTR [ebp+0x8]
 804ad2f:	89 04 24             	mov    DWORD PTR [esp],eax
 804ad32:	e8 90 f8 ff ff       	call   804a5c7 <init_top>
 804ad37:	8b 45 d0             	mov    eax,DWORD PTR [ebp-0x30]
 804ad3a:	89 c2                	mov    edx,eax
 804ad3c:	83 ca 03             	or     edx,0x3
 804ad3f:	8b 45 bc             	mov    eax,DWORD PTR [ebp-0x44]
 804ad42:	89 50 04             	mov    DWORD PTR [eax+0x4],edx
 804ad45:	8b 45 b8             	mov    eax,DWORD PTR [ebp-0x48]
 804ad48:	8b 55 08             	mov    edx,DWORD PTR [ebp+0x8]
 804ad4b:	8b 8a bc 01 00 00    	mov    ecx,DWORD PTR [edx+0x1bc]
 804ad51:	89 08                	mov    DWORD PTR [eax],ecx
 804ad53:	8b 8a c0 01 00 00    	mov    ecx,DWORD PTR [edx+0x1c0]
 804ad59:	89 48 04             	mov    DWORD PTR [eax+0x4],ecx
 804ad5c:	8b 8a c4 01 00 00    	mov    ecx,DWORD PTR [edx+0x1c4]
 804ad62:	89 48 08             	mov    DWORD PTR [eax+0x8],ecx
 804ad65:	8b 92 c8 01 00 00    	mov    edx,DWORD PTR [edx+0x1c8]
 804ad6b:	89 50 0c             	mov    DWORD PTR [eax+0xc],edx
 804ad6e:	8b 45 08             	mov    eax,DWORD PTR [ebp+0x8]
 804ad71:	8b 55 0c             	mov    edx,DWORD PTR [ebp+0xc]
 804ad74:	89 90 bc 01 00 00    	mov    DWORD PTR [eax+0x1bc],edx
 804ad7a:	8b 45 08             	mov    eax,DWORD PTR [ebp+0x8]
 804ad7d:	8b 55 10             	mov    edx,DWORD PTR [ebp+0x10]
 804ad80:	89 90 c0 01 00 00    	mov    DWORD PTR [eax+0x1c0],edx
 804ad86:	8b 45 08             	mov    eax,DWORD PTR [ebp+0x8]
 804ad89:	8b 55 14             	mov    edx,DWORD PTR [ebp+0x14]
 804ad8c:	89 90 c8 01 00 00    	mov    DWORD PTR [eax+0x1c8],edx
 804ad92:	8b 45 08             	mov    eax,DWORD PTR [ebp+0x8]
 804ad95:	8b 55 b8             	mov    edx,DWORD PTR [ebp-0x48]
 804ad98:	89 90 c4 01 00 00    	mov    DWORD PTR [eax+0x1c4],edx
 804ad9e:	8b 45 f4             	mov    eax,DWORD PTR [ebp-0xc]
 804ada1:	83 c0 04             	add    eax,0x4
 804ada4:	89 45 b0             	mov    DWORD PTR [ebp-0x50],eax
 804ada7:	8b 45 f4             	mov    eax,DWORD PTR [ebp-0xc]
 804adaa:	c7 40 04 07 00 00 00 	mov    DWORD PTR [eax+0x4],0x7
 804adb1:	83 45 f0 01          	add    DWORD PTR [ebp-0x10],0x1
 804adb5:	8b 45 b0             	mov    eax,DWORD PTR [ebp-0x50]
 804adb8:	83 c0 04             	add    eax,0x4
 804adbb:	3b 45 d4             	cmp    eax,DWORD PTR [ebp-0x2c]
 804adbe:	73 08                	jae    804adc8 <add_segment+0x169>
 804adc0:	8b 45 b0             	mov    eax,DWORD PTR [ebp-0x50]
 804adc3:	89 45 f4             	mov    DWORD PTR [ebp-0xc],eax
 804adc6:	eb d6                	jmp    804ad9e <add_segment+0x13f>
 804adc8:	90                   	nop
 804adc9:	8b 45 c0             	mov    eax,DWORD PTR [ebp-0x40]
 804adcc:	3b 45 dc             	cmp    eax,DWORD PTR [ebp-0x24]
 804adcf:	0f 84 ad 02 00 00    	je     804b082 <add_segment+0x423>
 804add5:	8b 45 dc             	mov    eax,DWORD PTR [ebp-0x24]
 804add8:	89 45 ac             	mov    DWORD PTR [ebp-0x54],eax
 804addb:	8b 55 c0             	mov    edx,DWORD PTR [ebp-0x40]
 804adde:	8b 45 dc             	mov    eax,DWORD PTR [ebp-0x24]
 804ade1:	89 d1                	mov    ecx,edx
 804ade3:	29 c1                	sub    ecx,eax
 804ade5:	89 c8                	mov    eax,ecx
 804ade7:	89 45 a8             	mov    DWORD PTR [ebp-0x58],eax
 804adea:	8b 45 a8             	mov    eax,DWORD PTR [ebp-0x58]
 804aded:	8b 55 ac             	mov    edx,DWORD PTR [ebp-0x54]
 804adf0:	01 d0                	add    eax,edx
 804adf2:	89 45 a4             	mov    DWORD PTR [ebp-0x5c],eax
 804adf5:	8b 45 a4             	mov    eax,DWORD PTR [ebp-0x5c]
 804adf8:	8b 40 04             	mov    eax,DWORD PTR [eax+0x4]
 804adfb:	89 c2                	mov    edx,eax
 804adfd:	83 e2 fe             	and    edx,0xfffffffe
 804ae00:	8b 45 a4             	mov    eax,DWORD PTR [ebp-0x5c]
 804ae03:	89 50 04             	mov    DWORD PTR [eax+0x4],edx
 804ae06:	8b 45 a8             	mov    eax,DWORD PTR [ebp-0x58]
 804ae09:	89 c2                	mov    edx,eax
 804ae0b:	83 ca 01             	or     edx,0x1
 804ae0e:	8b 45 ac             	mov    eax,DWORD PTR [ebp-0x54]
 804ae11:	89 50 04             	mov    DWORD PTR [eax+0x4],edx
 804ae14:	8b 45 a8             	mov    eax,DWORD PTR [ebp-0x58]
 804ae17:	8b 55 ac             	mov    edx,DWORD PTR [ebp-0x54]
 804ae1a:	01 c2                	add    edx,eax
 804ae1c:	8b 45 a8             	mov    eax,DWORD PTR [ebp-0x58]
 804ae1f:	89 02                	mov    DWORD PTR [edx],eax
 804ae21:	8b 45 a8             	mov    eax,DWORD PTR [ebp-0x58]
 804ae24:	c1 e8 03             	shr    eax,0x3
 804ae27:	83 f8 1f             	cmp    eax,0x1f
 804ae2a:	0f 87 94 00 00 00    	ja     804aec4 <add_segment+0x265>
 804ae30:	8b 45 a8             	mov    eax,DWORD PTR [ebp-0x58]
 804ae33:	c1 e8 03             	shr    eax,0x3
 804ae36:	89 45 a0             	mov    DWORD PTR [ebp-0x60],eax
 804ae39:	8b 45 a0             	mov    eax,DWORD PTR [ebp-0x60]
 804ae3c:	01 c0                	add    eax,eax
 804ae3e:	83 c0 08             	add    eax,0x8
 804ae41:	8d 14 85 00 00 00 00 	lea    edx,[eax*4+0x0]
 804ae48:	8b 45 08             	mov    eax,DWORD PTR [ebp+0x8]
 804ae4b:	01 d0                	add    eax,edx
 804ae4d:	83 c0 08             	add    eax,0x8
 804ae50:	89 45 9c             	mov    DWORD PTR [ebp-0x64],eax
 804ae53:	8b 45 9c             	mov    eax,DWORD PTR [ebp-0x64]
 804ae56:	89 45 ec             	mov    DWORD PTR [ebp-0x14],eax
 804ae59:	8b 45 08             	mov    eax,DWORD PTR [ebp+0x8]
 804ae5c:	8b 10                	mov    edx,DWORD PTR [eax]
 804ae5e:	8b 45 a0             	mov    eax,DWORD PTR [ebp-0x60]
 804ae61:	bb 01 00 00 00       	mov    ebx,0x1
 804ae66:	89 de                	mov    esi,ebx
 804ae68:	89 c1                	mov    ecx,eax
 804ae6a:	d3 e6                	shl    esi,cl
 804ae6c:	89 f0                	mov    eax,esi
 804ae6e:	21 d0                	and    eax,edx
 804ae70:	85 c0                	test   eax,eax
 804ae72:	75 1e                	jne    804ae92 <add_segment+0x233>
 804ae74:	8b 45 08             	mov    eax,DWORD PTR [ebp+0x8]
 804ae77:	8b 10                	mov    edx,DWORD PTR [eax]
 804ae79:	8b 45 a0             	mov    eax,DWORD PTR [ebp-0x60]
 804ae7c:	bb 01 00 00 00       	mov    ebx,0x1
 804ae81:	89 de                	mov    esi,ebx
 804ae83:	89 c1                	mov    ecx,eax
 804ae85:	d3 e6                	shl    esi,cl
 804ae87:	89 f0                	mov    eax,esi
 804ae89:	09 c2                	or     edx,eax
 804ae8b:	8b 45 08             	mov    eax,DWORD PTR [ebp+0x8]
 804ae8e:	89 10                	mov    DWORD PTR [eax],edx
 804ae90:	eb 09                	jmp    804ae9b <add_segment+0x23c>
 804ae92:	8b 45 9c             	mov    eax,DWORD PTR [ebp-0x64]
 804ae95:	8b 40 08             	mov    eax,DWORD PTR [eax+0x8]
 804ae98:	89 45 ec             	mov    DWORD PTR [ebp-0x14],eax
 804ae9b:	8b 45 9c             	mov    eax,DWORD PTR [ebp-0x64]
 804ae9e:	8b 55 ac             	mov    edx,DWORD PTR [ebp-0x54]
 804aea1:	89 50 08             	mov    DWORD PTR [eax+0x8],edx
 804aea4:	8b 45 ec             	mov    eax,DWORD PTR [ebp-0x14]
 804aea7:	8b 55 ac             	mov    edx,DWORD PTR [ebp-0x54]
 804aeaa:	89 50 0c             	mov    DWORD PTR [eax+0xc],edx
 804aead:	8b 45 ac             	mov    eax,DWORD PTR [ebp-0x54]
 804aeb0:	8b 55 ec             	mov    edx,DWORD PTR [ebp-0x14]
 804aeb3:	89 50 08             	mov    DWORD PTR [eax+0x8],edx
 804aeb6:	8b 45 ac             	mov    eax,DWORD PTR [ebp-0x54]
 804aeb9:	8b 55 9c             	mov    edx,DWORD PTR [ebp-0x64]
 804aebc:	89 50 0c             	mov    DWORD PTR [eax+0xc],edx
 804aebf:	e9 be 01 00 00       	jmp    804b082 <add_segment+0x423>
 804aec4:	8b 45 ac             	mov    eax,DWORD PTR [ebp-0x54]
 804aec7:	89 45 98             	mov    DWORD PTR [ebp-0x68],eax
 804aeca:	8b 45 a8             	mov    eax,DWORD PTR [ebp-0x58]
 804aecd:	c1 e8 08             	shr    eax,0x8
 804aed0:	89 45 94             	mov    DWORD PTR [ebp-0x6c],eax
 804aed3:	83 7d 94 00          	cmp    DWORD PTR [ebp-0x6c],0x0
 804aed7:	75 09                	jne    804aee2 <add_segment+0x283>
 804aed9:	c7 45 e8 00 00 00 00 	mov    DWORD PTR [ebp-0x18],0x0
 804aee0:	eb 38                	jmp    804af1a <add_segment+0x2bb>
 804aee2:	81 7d 94 ff ff 00 00 	cmp    DWORD PTR [ebp-0x6c],0xffff
 804aee9:	76 09                	jbe    804aef4 <add_segment+0x295>
 804aeeb:	c7 45 e8 1f 00 00 00 	mov    DWORD PTR [ebp-0x18],0x1f
 804aef2:	eb 26                	jmp    804af1a <add_segment+0x2bb>
 804aef4:	0f bd 5d 94          	bsr    ebx,DWORD PTR [ebp-0x6c]
 804aef8:	89 5d 90             	mov    DWORD PTR [ebp-0x70],ebx
 804aefb:	8b 45 90             	mov    eax,DWORD PTR [ebp-0x70]
 804aefe:	8d 1c 00             	lea    ebx,[eax+eax*1]
 804af01:	8b 45 90             	mov    eax,DWORD PTR [ebp-0x70]
 804af04:	83 c0 07             	add    eax,0x7
 804af07:	8b 55 a8             	mov    edx,DWORD PTR [ebp-0x58]
 804af0a:	89 d6                	mov    esi,edx
 804af0c:	89 c1                	mov    ecx,eax
 804af0e:	d3 ee                	shr    esi,cl
 804af10:	89 f0                	mov    eax,esi
 804af12:	83 e0 01             	and    eax,0x1
 804af15:	01 d8                	add    eax,ebx
 804af17:	89 45 e8             	mov    DWORD PTR [ebp-0x18],eax
 804af1a:	8b 45 e8             	mov    eax,DWORD PTR [ebp-0x18]
 804af1d:	83 c0 4c             	add    eax,0x4c
 804af20:	8d 14 85 00 00 00 00 	lea    edx,[eax*4+0x0]
 804af27:	8b 45 08             	mov    eax,DWORD PTR [ebp+0x8]
 804af2a:	01 d0                	add    eax,edx
 804af2c:	89 45 8c             	mov    DWORD PTR [ebp-0x74],eax
 804af2f:	8b 45 98             	mov    eax,DWORD PTR [ebp-0x68]
 804af32:	8b 55 e8             	mov    edx,DWORD PTR [ebp-0x18]
 804af35:	89 50 1c             	mov    DWORD PTR [eax+0x1c],edx
 804af38:	8b 45 98             	mov    eax,DWORD PTR [ebp-0x68]
 804af3b:	c7 40 14 00 00 00 00 	mov    DWORD PTR [eax+0x14],0x0
 804af42:	8b 45 98             	mov    eax,DWORD PTR [ebp-0x68]
 804af45:	8b 50 14             	mov    edx,DWORD PTR [eax+0x14]
 804af48:	8b 45 98             	mov    eax,DWORD PTR [ebp-0x68]
 804af4b:	89 50 10             	mov    DWORD PTR [eax+0x10],edx
 804af4e:	8b 45 08             	mov    eax,DWORD PTR [ebp+0x8]
 804af51:	8b 50 04             	mov    edx,DWORD PTR [eax+0x4]
 804af54:	8b 45 e8             	mov    eax,DWORD PTR [ebp-0x18]
 804af57:	bb 01 00 00 00       	mov    ebx,0x1
 804af5c:	89 de                	mov    esi,ebx
 804af5e:	89 c1                	mov    ecx,eax
 804af60:	d3 e6                	shl    esi,cl
 804af62:	89 f0                	mov    eax,esi
 804af64:	21 d0                	and    eax,edx
 804af66:	85 c0                	test   eax,eax
 804af68:	75 49                	jne    804afb3 <add_segment+0x354>
 804af6a:	8b 45 08             	mov    eax,DWORD PTR [ebp+0x8]
 804af6d:	8b 50 04             	mov    edx,DWORD PTR [eax+0x4]
 804af70:	8b 45 e8             	mov    eax,DWORD PTR [ebp-0x18]
 804af73:	bb 01 00 00 00       	mov    ebx,0x1
 804af78:	89 de                	mov    esi,ebx
 804af7a:	89 c1                	mov    ecx,eax
 804af7c:	d3 e6                	shl    esi,cl
 804af7e:	89 f0                	mov    eax,esi
 804af80:	09 c2                	or     edx,eax
 804af82:	8b 45 08             	mov    eax,DWORD PTR [ebp+0x8]
 804af85:	89 50 04             	mov    DWORD PTR [eax+0x4],edx
 804af88:	8b 45 8c             	mov    eax,DWORD PTR [ebp-0x74]
 804af8b:	8b 55 98             	mov    edx,DWORD PTR [ebp-0x68]
 804af8e:	89 10                	mov    DWORD PTR [eax],edx
 804af90:	8b 45 98             	mov    eax,DWORD PTR [ebp-0x68]
 804af93:	8b 55 8c             	mov    edx,DWORD PTR [ebp-0x74]
 804af96:	89 50 18             	mov    DWORD PTR [eax+0x18],edx
 804af99:	8b 45 98             	mov    eax,DWORD PTR [ebp-0x68]
 804af9c:	8b 55 98             	mov    edx,DWORD PTR [ebp-0x68]
 804af9f:	89 50 0c             	mov    DWORD PTR [eax+0xc],edx
 804afa2:	8b 45 98             	mov    eax,DWORD PTR [ebp-0x68]
 804afa5:	8b 50 0c             	mov    edx,DWORD PTR [eax+0xc]
 804afa8:	8b 45 98             	mov    eax,DWORD PTR [ebp-0x68]
 804afab:	89 50 08             	mov    DWORD PTR [eax+0x8],edx
 804afae:	e9 cf 00 00 00       	jmp    804b082 <add_segment+0x423>
 804afb3:	8b 45 8c             	mov    eax,DWORD PTR [ebp-0x74]
 804afb6:	8b 00                	mov    eax,DWORD PTR [eax]
 804afb8:	89 45 e4             	mov    DWORD PTR [ebp-0x1c],eax
 804afbb:	83 7d e8 1f          	cmp    DWORD PTR [ebp-0x18],0x1f
 804afbf:	74 10                	je     804afd1 <add_segment+0x372>
 804afc1:	8b 45 e8             	mov    eax,DWORD PTR [ebp-0x18]
 804afc4:	89 c2                	mov    edx,eax
 804afc6:	d1 ea                	shr    edx,1
 804afc8:	b8 19 00 00 00       	mov    eax,0x19
 804afcd:	29 d0                	sub    eax,edx
 804afcf:	eb 05                	jmp    804afd6 <add_segment+0x377>
 804afd1:	b8 00 00 00 00       	mov    eax,0x0
 804afd6:	8b 55 a8             	mov    edx,DWORD PTR [ebp-0x58]
 804afd9:	89 d3                	mov    ebx,edx
 804afdb:	89 c1                	mov    ecx,eax
 804afdd:	d3 e3                	shl    ebx,cl
 804afdf:	89 d8                	mov    eax,ebx
 804afe1:	89 45 e0             	mov    DWORD PTR [ebp-0x20],eax
 804afe4:	8b 45 e4             	mov    eax,DWORD PTR [ebp-0x1c]
 804afe7:	8b 40 04             	mov    eax,DWORD PTR [eax+0x4]
 804afea:	83 e0 f8             	and    eax,0xfffffff8
 804afed:	3b 45 a8             	cmp    eax,DWORD PTR [ebp-0x58]
 804aff0:	74 56                	je     804b048 <add_segment+0x3e9>
 804aff2:	8b 45 e0             	mov    eax,DWORD PTR [ebp-0x20]
 804aff5:	c1 e8 1f             	shr    eax,0x1f
 804aff8:	83 c0 04             	add    eax,0x4
 804affb:	8d 14 85 00 00 00 00 	lea    edx,[eax*4+0x0]
 804b002:	8b 45 e4             	mov    eax,DWORD PTR [ebp-0x1c]
 804b005:	01 d0                	add    eax,edx
 804b007:	89 45 88             	mov    DWORD PTR [ebp-0x78],eax
 804b00a:	d1 65 e0             	shl    DWORD PTR [ebp-0x20],1
 804b00d:	8b 45 88             	mov    eax,DWORD PTR [ebp-0x78]
 804b010:	8b 00                	mov    eax,DWORD PTR [eax]
 804b012:	85 c0                	test   eax,eax
 804b014:	74 0a                	je     804b020 <add_segment+0x3c1>
 804b016:	8b 45 88             	mov    eax,DWORD PTR [ebp-0x78]
 804b019:	8b 00                	mov    eax,DWORD PTR [eax]
 804b01b:	89 45 e4             	mov    DWORD PTR [ebp-0x1c],eax
 804b01e:	eb c4                	jmp    804afe4 <add_segment+0x385>
 804b020:	8b 45 88             	mov    eax,DWORD PTR [ebp-0x78]
 804b023:	8b 55 98             	mov    edx,DWORD PTR [ebp-0x68]
 804b026:	89 10                	mov    DWORD PTR [eax],edx
 804b028:	8b 45 98             	mov    eax,DWORD PTR [ebp-0x68]
 804b02b:	8b 55 e4             	mov    edx,DWORD PTR [ebp-0x1c]
 804b02e:	89 50 18             	mov    DWORD PTR [eax+0x18],edx
 804b031:	8b 45 98             	mov    eax,DWORD PTR [ebp-0x68]
 804b034:	8b 55 98             	mov    edx,DWORD PTR [ebp-0x68]
 804b037:	89 50 0c             	mov    DWORD PTR [eax+0xc],edx
 804b03a:	8b 45 98             	mov    eax,DWORD PTR [ebp-0x68]
 804b03d:	8b 50 0c             	mov    edx,DWORD PTR [eax+0xc]
 804b040:	8b 45 98             	mov    eax,DWORD PTR [ebp-0x68]
 804b043:	89 50 08             	mov    DWORD PTR [eax+0x8],edx
 804b046:	eb 3a                	jmp    804b082 <add_segment+0x423>
 804b048:	8b 45 e4             	mov    eax,DWORD PTR [ebp-0x1c]
 804b04b:	8b 40 08             	mov    eax,DWORD PTR [eax+0x8]
 804b04e:	89 45 84             	mov    DWORD PTR [ebp-0x7c],eax
 804b051:	8b 45 84             	mov    eax,DWORD PTR [ebp-0x7c]
 804b054:	8b 55 98             	mov    edx,DWORD PTR [ebp-0x68]
 804b057:	89 50 0c             	mov    DWORD PTR [eax+0xc],edx
 804b05a:	8b 45 84             	mov    eax,DWORD PTR [ebp-0x7c]
 804b05d:	8b 50 0c             	mov    edx,DWORD PTR [eax+0xc]
 804b060:	8b 45 e4             	mov    eax,DWORD PTR [ebp-0x1c]
 804b063:	89 50 08             	mov    DWORD PTR [eax+0x8],edx
 804b066:	8b 45 98             	mov    eax,DWORD PTR [ebp-0x68]
 804b069:	8b 55 84             	mov    edx,DWORD PTR [ebp-0x7c]
 804b06c:	89 50 08             	mov    DWORD PTR [eax+0x8],edx
 804b06f:	8b 45 98             	mov    eax,DWORD PTR [ebp-0x68]
 804b072:	8b 55 e4             	mov    edx,DWORD PTR [ebp-0x1c]
 804b075:	89 50 0c             	mov    DWORD PTR [eax+0xc],edx
 804b078:	8b 45 98             	mov    eax,DWORD PTR [ebp-0x68]
 804b07b:	c7 40 18 00 00 00 00 	mov    DWORD PTR [eax+0x18],0x0
 804b082:	81 c4 8c 00 00 00    	add    esp,0x8c
 804b088:	5b                   	pop    ebx
 804b089:	5e                   	pop    esi
 804b08a:	5d                   	pop    ebp
 804b08b:	c3                   	ret    

0804b08c <sys_alloc>:
 804b08c:	55                   	push   ebp
 804b08d:	89 e5                	mov    ebp,esp
 804b08f:	81 ec 88 00 00 00    	sub    esp,0x88
 804b095:	c7 45 f4 ff ff ff ff 	mov    DWORD PTR [ebp-0xc],0xffffffff
 804b09c:	c7 45 f0 00 00 00 00 	mov    DWORD PTR [ebp-0x10],0x0
 804b0a3:	c7 45 ec 00 00 00 00 	mov    DWORD PTR [ebp-0x14],0x0
 804b0aa:	a1 60 0b 05 08       	mov    eax,ds:0x8050b60
 804b0af:	85 c0                	test   eax,eax
 804b0b1:	75 07                	jne    804b0ba <sys_alloc+0x2e>
 804b0b3:	e8 24 ee ff ff       	call   8049edc <init_mparams>
 804b0b8:	85 c0                	test   eax,eax
 804b0ba:	8b 45 08             	mov    eax,DWORD PTR [ebp+0x8]
 804b0bd:	8b 80 b8 01 00 00    	mov    eax,DWORD PTR [eax+0x1b8]
 804b0c3:	83 e0 01             	and    eax,0x1
 804b0c6:	85 c0                	test   eax,eax
 804b0c8:	74 37                	je     804b101 <sys_alloc+0x75>
 804b0ca:	a1 6c 0b 05 08       	mov    eax,ds:0x8050b6c
 804b0cf:	3b 45 0c             	cmp    eax,DWORD PTR [ebp+0xc]
 804b0d2:	77 2d                	ja     804b101 <sys_alloc+0x75>
 804b0d4:	8b 45 08             	mov    eax,DWORD PTR [ebp+0x8]
 804b0d7:	8b 40 0c             	mov    eax,DWORD PTR [eax+0xc]
 804b0da:	85 c0                	test   eax,eax
 804b0dc:	74 23                	je     804b101 <sys_alloc+0x75>
 804b0de:	8b 45 0c             	mov    eax,DWORD PTR [ebp+0xc]
 804b0e1:	89 44 24 04          	mov    DWORD PTR [esp+0x4],eax
 804b0e5:	8b 45 08             	mov    eax,DWORD PTR [ebp+0x8]
 804b0e8:	89 04 24             	mov    DWORD PTR [esp],eax
 804b0eb:	e8 26 f2 ff ff       	call   804a316 <mmap_alloc>
 804b0f0:	89 45 dc             	mov    DWORD PTR [ebp-0x24],eax
 804b0f3:	83 7d dc 00          	cmp    DWORD PTR [ebp-0x24],0x0
 804b0f7:	74 08                	je     804b101 <sys_alloc+0x75>
 804b0f9:	8b 45 dc             	mov    eax,DWORD PTR [ebp-0x24]
 804b0fc:	e9 0a 06 00 00       	jmp    804b70b <sys_alloc+0x67f>
 804b101:	8b 45 08             	mov    eax,DWORD PTR [ebp+0x8]
 804b104:	8b 80 b8 01 00 00    	mov    eax,DWORD PTR [eax+0x1b8]
 804b10a:	83 e0 04             	and    eax,0x4
 804b10d:	85 c0                	test   eax,eax
 804b10f:	0f 85 d1 01 00 00    	jne    804b2e6 <sys_alloc+0x25a>
 804b115:	c7 45 e8 ff ff ff ff 	mov    DWORD PTR [ebp-0x18],0xffffffff
 804b11c:	8b 45 08             	mov    eax,DWORD PTR [ebp+0x8]
 804b11f:	8b 40 18             	mov    eax,DWORD PTR [eax+0x18]
 804b122:	85 c0                	test   eax,eax
 804b124:	74 17                	je     804b13d <sys_alloc+0xb1>
 804b126:	8b 45 08             	mov    eax,DWORD PTR [ebp+0x8]
 804b129:	8b 40 18             	mov    eax,DWORD PTR [eax+0x18]
 804b12c:	89 44 24 04          	mov    DWORD PTR [esp+0x4],eax
 804b130:	8b 45 08             	mov    eax,DWORD PTR [ebp+0x8]
 804b133:	89 04 24             	mov    DWORD PTR [esp],eax
 804b136:	e8 09 ed ff ff       	call   8049e44 <segment_holding>
 804b13b:	eb 05                	jmp    804b142 <sys_alloc+0xb6>
 804b13d:	b8 00 00 00 00       	mov    eax,0x0
 804b142:	89 45 d8             	mov    DWORD PTR [ebp-0x28],eax
 804b145:	c7 45 e4 00 00 00 00 	mov    DWORD PTR [ebp-0x1c],0x0
 804b14c:	83 7d d8 00          	cmp    DWORD PTR [ebp-0x28],0x0
 804b150:	0f 85 94 00 00 00    	jne    804b1ea <sys_alloc+0x15e>
 804b156:	c7 04 24 00 00 00 00 	mov    DWORD PTR [esp],0x0
 804b15d:	e8 ae d9 ff ff       	call   8048b10 <sbrk@plt>
 804b162:	89 45 d4             	mov    DWORD PTR [ebp-0x2c],eax
 804b165:	83 7d d4 ff          	cmp    DWORD PTR [ebp-0x2c],0xffffffff
 804b169:	0f 84 d1 00 00 00    	je     804b240 <sys_alloc+0x1b4>
 804b16f:	8b 15 68 0b 05 08    	mov    edx,DWORD PTR ds:0x8050b68
 804b175:	8b 45 0c             	mov    eax,DWORD PTR [ebp+0xc]
 804b178:	01 d0                	add    eax,edx
 804b17a:	8d 50 2f             	lea    edx,[eax+0x2f]
 804b17d:	a1 68 0b 05 08       	mov    eax,ds:0x8050b68
 804b182:	f7 d8                	neg    eax
 804b184:	21 d0                	and    eax,edx
 804b186:	89 45 e4             	mov    DWORD PTR [ebp-0x1c],eax
 804b189:	a1 64 0b 05 08       	mov    eax,ds:0x8050b64
 804b18e:	8d 50 ff             	lea    edx,[eax-0x1]
 804b191:	8b 45 d4             	mov    eax,DWORD PTR [ebp-0x2c]
 804b194:	21 d0                	and    eax,edx
 804b196:	85 c0                	test   eax,eax
 804b198:	74 23                	je     804b1bd <sys_alloc+0x131>
 804b19a:	8b 15 64 0b 05 08    	mov    edx,DWORD PTR ds:0x8050b64
 804b1a0:	8b 45 d4             	mov    eax,DWORD PTR [ebp-0x2c]
 804b1a3:	01 d0                	add    eax,edx
 804b1a5:	8d 50 ff             	lea    edx,[eax-0x1]
 804b1a8:	a1 64 0b 05 08       	mov    eax,ds:0x8050b64
 804b1ad:	f7 d8                	neg    eax
 804b1af:	21 c2                	and    edx,eax
 804b1b1:	8b 45 d4             	mov    eax,DWORD PTR [ebp-0x2c]
 804b1b4:	89 d1                	mov    ecx,edx
 804b1b6:	29 c1                	sub    ecx,eax
 804b1b8:	89 c8                	mov    eax,ecx
 804b1ba:	01 45 e4             	add    DWORD PTR [ebp-0x1c],eax
 804b1bd:	81 7d e4 fe ff ff 7f 	cmp    DWORD PTR [ebp-0x1c],0x7ffffffe
 804b1c4:	77 7a                	ja     804b240 <sys_alloc+0x1b4>
 804b1c6:	8b 45 e4             	mov    eax,DWORD PTR [ebp-0x1c]
 804b1c9:	89 04 24             	mov    DWORD PTR [esp],eax
 804b1cc:	e8 3f d9 ff ff       	call   8048b10 <sbrk@plt>
 804b1d1:	89 45 e8             	mov    DWORD PTR [ebp-0x18],eax
 804b1d4:	8b 45 e8             	mov    eax,DWORD PTR [ebp-0x18]
 804b1d7:	3b 45 d4             	cmp    eax,DWORD PTR [ebp-0x2c]
 804b1da:	75 64                	jne    804b240 <sys_alloc+0x1b4>
 804b1dc:	8b 45 d4             	mov    eax,DWORD PTR [ebp-0x2c]
 804b1df:	89 45 f4             	mov    DWORD PTR [ebp-0xc],eax
 804b1e2:	8b 45 e4             	mov    eax,DWORD PTR [ebp-0x1c]
 804b1e5:	89 45 f0             	mov    DWORD PTR [ebp-0x10],eax
 804b1e8:	eb 56                	jmp    804b240 <sys_alloc+0x1b4>
 804b1ea:	8b 45 08             	mov    eax,DWORD PTR [ebp+0x8]
 804b1ed:	8b 40 0c             	mov    eax,DWORD PTR [eax+0xc]
 804b1f0:	8b 55 0c             	mov    edx,DWORD PTR [ebp+0xc]
 804b1f3:	29 c2                	sub    edx,eax
 804b1f5:	a1 68 0b 05 08       	mov    eax,ds:0x8050b68
 804b1fa:	01 d0                	add    eax,edx
 804b1fc:	8d 50 2f             	lea    edx,[eax+0x2f]
 804b1ff:	a1 68 0b 05 08       	mov    eax,ds:0x8050b68
 804b204:	f7 d8                	neg    eax
 804b206:	21 d0                	and    eax,edx
 804b208:	89 45 e4             	mov    DWORD PTR [ebp-0x1c],eax
 804b20b:	81 7d e4 fe ff ff 7f 	cmp    DWORD PTR [ebp-0x1c],0x7ffffffe
 804b212:	77 2c                	ja     804b240 <sys_alloc+0x1b4>
 804b214:	8b 45 e4             	mov    eax,DWORD PTR [ebp-0x1c]
 804b217:	89 04 24             	mov    DWORD PTR [esp],eax
 804b21a:	e8 f1 d8 ff ff       	call   8048b10 <sbrk@plt>
 804b21f:	89 45 e8             	mov    DWORD PTR [ebp-0x18],eax
 804b222:	8b 45 d8             	mov    eax,DWORD PTR [ebp-0x28]
 804b225:	8b 10                	mov    edx,DWORD PTR [eax]
 804b227:	8b 45 d8             	mov    eax,DWORD PTR [ebp-0x28]
 804b22a:	8b 40 04             	mov    eax,DWORD PTR [eax+0x4]
 804b22d:	01 d0                	add    eax,edx
 804b22f:	39 45 e8             	cmp    DWORD PTR [ebp-0x18],eax
 804b232:	75 0c                	jne    804b240 <sys_alloc+0x1b4>
 804b234:	8b 45 e8             	mov    eax,DWORD PTR [ebp-0x18]
 804b237:	89 45 f4             	mov    DWORD PTR [ebp-0xc],eax
 804b23a:	8b 45 e4             	mov    eax,DWORD PTR [ebp-0x1c]
 804b23d:	89 45 f0             	mov    DWORD PTR [ebp-0x10],eax
 804b240:	83 7d f4 ff          	cmp    DWORD PTR [ebp-0xc],0xffffffff
 804b244:	0f 85 9c 00 00 00    	jne    804b2e6 <sys_alloc+0x25a>
 804b24a:	83 7d e8 ff          	cmp    DWORD PTR [ebp-0x18],0xffffffff
 804b24e:	74 6b                	je     804b2bb <sys_alloc+0x22f>
 804b250:	81 7d e4 fe ff ff 7f 	cmp    DWORD PTR [ebp-0x1c],0x7ffffffe
 804b257:	77 62                	ja     804b2bb <sys_alloc+0x22f>
 804b259:	8b 45 0c             	mov    eax,DWORD PTR [ebp+0xc]
 804b25c:	83 c0 30             	add    eax,0x30
 804b25f:	3b 45 e4             	cmp    eax,DWORD PTR [ebp-0x1c]
 804b262:	76 57                	jbe    804b2bb <sys_alloc+0x22f>
 804b264:	8b 45 e4             	mov    eax,DWORD PTR [ebp-0x1c]
 804b267:	8b 55 0c             	mov    edx,DWORD PTR [ebp+0xc]
 804b26a:	29 c2                	sub    edx,eax
 804b26c:	a1 68 0b 05 08       	mov    eax,ds:0x8050b68
 804b271:	01 d0                	add    eax,edx
 804b273:	8d 50 2f             	lea    edx,[eax+0x2f]
 804b276:	a1 68 0b 05 08       	mov    eax,ds:0x8050b68
 804b27b:	f7 d8                	neg    eax
 804b27d:	21 d0                	and    eax,edx
 804b27f:	89 45 d0             	mov    DWORD PTR [ebp-0x30],eax
 804b282:	81 7d d0 fe ff ff 7f 	cmp    DWORD PTR [ebp-0x30],0x7ffffffe
 804b289:	77 30                	ja     804b2bb <sys_alloc+0x22f>
 804b28b:	8b 45 d0             	mov    eax,DWORD PTR [ebp-0x30]
 804b28e:	89 04 24             	mov    DWORD PTR [esp],eax
 804b291:	e8 7a d8 ff ff       	call   8048b10 <sbrk@plt>
 804b296:	89 45 cc             	mov    DWORD PTR [ebp-0x34],eax
 804b299:	83 7d cc ff          	cmp    DWORD PTR [ebp-0x34],0xffffffff
 804b29d:	74 08                	je     804b2a7 <sys_alloc+0x21b>
 804b29f:	8b 45 d0             	mov    eax,DWORD PTR [ebp-0x30]
 804b2a2:	01 45 e4             	add    DWORD PTR [ebp-0x1c],eax
 804b2a5:	eb 14                	jmp    804b2bb <sys_alloc+0x22f>
 804b2a7:	8b 45 e4             	mov    eax,DWORD PTR [ebp-0x1c]
 804b2aa:	f7 d8                	neg    eax
 804b2ac:	89 04 24             	mov    DWORD PTR [esp],eax
 804b2af:	e8 5c d8 ff ff       	call   8048b10 <sbrk@plt>
 804b2b4:	c7 45 e8 ff ff ff ff 	mov    DWORD PTR [ebp-0x18],0xffffffff
 804b2bb:	83 7d e8 ff          	cmp    DWORD PTR [ebp-0x18],0xffffffff
 804b2bf:	74 0e                	je     804b2cf <sys_alloc+0x243>
 804b2c1:	8b 45 e8             	mov    eax,DWORD PTR [ebp-0x18]
 804b2c4:	89 45 f4             	mov    DWORD PTR [ebp-0xc],eax
 804b2c7:	8b 45 e4             	mov    eax,DWORD PTR [ebp-0x1c]
 804b2ca:	89 45 f0             	mov    DWORD PTR [ebp-0x10],eax
 804b2cd:	eb 17                	jmp    804b2e6 <sys_alloc+0x25a>
 804b2cf:	8b 45 08             	mov    eax,DWORD PTR [ebp+0x8]
 804b2d2:	8b 80 b8 01 00 00    	mov    eax,DWORD PTR [eax+0x1b8]
 804b2d8:	89 c2                	mov    edx,eax
 804b2da:	83 ca 04             	or     edx,0x4
 804b2dd:	8b 45 08             	mov    eax,DWORD PTR [ebp+0x8]
 804b2e0:	89 90 b8 01 00 00    	mov    DWORD PTR [eax+0x1b8],edx
 804b2e6:	83 7d f4 ff          	cmp    DWORD PTR [ebp-0xc],0xffffffff
 804b2ea:	75 71                	jne    804b35d <sys_alloc+0x2d1>
 804b2ec:	8b 15 68 0b 05 08    	mov    edx,DWORD PTR ds:0x8050b68
 804b2f2:	8b 45 0c             	mov    eax,DWORD PTR [ebp+0xc]
 804b2f5:	01 d0                	add    eax,edx
 804b2f7:	8d 50 2f             	lea    edx,[eax+0x2f]
 804b2fa:	a1 68 0b 05 08       	mov    eax,ds:0x8050b68
 804b2ff:	f7 d8                	neg    eax
 804b301:	21 d0                	and    eax,edx
 804b303:	89 45 c8             	mov    DWORD PTR [ebp-0x38],eax
 804b306:	8b 45 c8             	mov    eax,DWORD PTR [ebp-0x38]
 804b309:	3b 45 0c             	cmp    eax,DWORD PTR [ebp+0xc]
 804b30c:	76 4f                	jbe    804b35d <sys_alloc+0x2d1>
 804b30e:	c7 44 24 14 00 00 00 	mov    DWORD PTR [esp+0x14],0x0
 804b315:	00 
 804b316:	c7 44 24 10 ff ff ff 	mov    DWORD PTR [esp+0x10],0xffffffff
 804b31d:	ff 
 804b31e:	c7 44 24 0c 22 00 00 	mov    DWORD PTR [esp+0xc],0x22
 804b325:	00 
 804b326:	c7 44 24 08 03 00 00 	mov    DWORD PTR [esp+0x8],0x3
 804b32d:	00 
 804b32e:	8b 45 c8             	mov    eax,DWORD PTR [ebp-0x38]
 804b331:	89 44 24 04          	mov    DWORD PTR [esp+0x4],eax
 804b335:	c7 04 24 00 00 00 00 	mov    DWORD PTR [esp],0x0
 804b33c:	e8 ef d6 ff ff       	call   8048a30 <mmap@plt>
 804b341:	89 45 c4             	mov    DWORD PTR [ebp-0x3c],eax
 804b344:	83 7d c4 ff          	cmp    DWORD PTR [ebp-0x3c],0xffffffff
 804b348:	74 13                	je     804b35d <sys_alloc+0x2d1>
 804b34a:	8b 45 c4             	mov    eax,DWORD PTR [ebp-0x3c]
 804b34d:	89 45 f4             	mov    DWORD PTR [ebp-0xc],eax
 804b350:	8b 45 c8             	mov    eax,DWORD PTR [ebp-0x38]
 804b353:	89 45 f0             	mov    DWORD PTR [ebp-0x10],eax
 804b356:	c7 45 ec 01 00 00 00 	mov    DWORD PTR [ebp-0x14],0x1
 804b35d:	83 7d f4 ff          	cmp    DWORD PTR [ebp-0xc],0xffffffff
 804b361:	0f 85 88 00 00 00    	jne    804b3ef <sys_alloc+0x363>
 804b367:	8b 15 68 0b 05 08    	mov    edx,DWORD PTR ds:0x8050b68
 804b36d:	8b 45 0c             	mov    eax,DWORD PTR [ebp+0xc]
 804b370:	01 d0                	add    eax,edx
 804b372:	8d 50 2f             	lea    edx,[eax+0x2f]
 804b375:	a1 68 0b 05 08       	mov    eax,ds:0x8050b68
 804b37a:	f7 d8                	neg    eax
 804b37c:	21 d0                	and    eax,edx
 804b37e:	89 45 c0             	mov    DWORD PTR [ebp-0x40],eax
 804b381:	81 7d c0 fe ff ff 7f 	cmp    DWORD PTR [ebp-0x40],0x7ffffffe
 804b388:	77 65                	ja     804b3ef <sys_alloc+0x363>
 804b38a:	c7 45 bc ff ff ff ff 	mov    DWORD PTR [ebp-0x44],0xffffffff
 804b391:	c7 45 b8 ff ff ff ff 	mov    DWORD PTR [ebp-0x48],0xffffffff
 804b398:	8b 45 c0             	mov    eax,DWORD PTR [ebp-0x40]
 804b39b:	89 04 24             	mov    DWORD PTR [esp],eax
 804b39e:	e8 6d d7 ff ff       	call   8048b10 <sbrk@plt>
 804b3a3:	89 45 bc             	mov    DWORD PTR [ebp-0x44],eax
 804b3a6:	c7 04 24 00 00 00 00 	mov    DWORD PTR [esp],0x0
 804b3ad:	e8 5e d7 ff ff       	call   8048b10 <sbrk@plt>
 804b3b2:	89 45 b8             	mov    DWORD PTR [ebp-0x48],eax
 804b3b5:	83 7d bc ff          	cmp    DWORD PTR [ebp-0x44],0xffffffff
 804b3b9:	74 34                	je     804b3ef <sys_alloc+0x363>
 804b3bb:	83 7d b8 ff          	cmp    DWORD PTR [ebp-0x48],0xffffffff
 804b3bf:	74 2e                	je     804b3ef <sys_alloc+0x363>
 804b3c1:	8b 45 bc             	mov    eax,DWORD PTR [ebp-0x44]
 804b3c4:	3b 45 b8             	cmp    eax,DWORD PTR [ebp-0x48]
 804b3c7:	73 26                	jae    804b3ef <sys_alloc+0x363>
 804b3c9:	8b 55 b8             	mov    edx,DWORD PTR [ebp-0x48]
 804b3cc:	8b 45 bc             	mov    eax,DWORD PTR [ebp-0x44]
 804b3cf:	89 d1                	mov    ecx,edx
 804b3d1:	29 c1                	sub    ecx,eax
 804b3d3:	89 c8                	mov    eax,ecx
 804b3d5:	89 45 b4             	mov    DWORD PTR [ebp-0x4c],eax
 804b3d8:	8b 45 0c             	mov    eax,DWORD PTR [ebp+0xc]
 804b3db:	83 c0 28             	add    eax,0x28
 804b3de:	3b 45 b4             	cmp    eax,DWORD PTR [ebp-0x4c]
 804b3e1:	73 0c                	jae    804b3ef <sys_alloc+0x363>
 804b3e3:	8b 45 bc             	mov    eax,DWORD PTR [ebp-0x44]
 804b3e6:	89 45 f4             	mov    DWORD PTR [ebp-0xc],eax
 804b3e9:	8b 45 b4             	mov    eax,DWORD PTR [ebp-0x4c]
 804b3ec:	89 45 f0             	mov    DWORD PTR [ebp-0x10],eax
 804b3ef:	83 7d f4 ff          	cmp    DWORD PTR [ebp-0xc],0xffffffff
 804b3f3:	0f 84 02 03 00 00    	je     804b6fb <sys_alloc+0x66f>
 804b3f9:	8b 45 08             	mov    eax,DWORD PTR [ebp+0x8]
 804b3fc:	8b 90 b0 01 00 00    	mov    edx,DWORD PTR [eax+0x1b0]
 804b402:	8b 45 f0             	mov    eax,DWORD PTR [ebp-0x10]
 804b405:	01 c2                	add    edx,eax
 804b407:	8b 45 08             	mov    eax,DWORD PTR [ebp+0x8]
 804b40a:	89 90 b0 01 00 00    	mov    DWORD PTR [eax+0x1b0],edx
 804b410:	8b 45 08             	mov    eax,DWORD PTR [ebp+0x8]
 804b413:	8b 90 b0 01 00 00    	mov    edx,DWORD PTR [eax+0x1b0]
 804b419:	8b 45 08             	mov    eax,DWORD PTR [ebp+0x8]
 804b41c:	8b 80 b4 01 00 00    	mov    eax,DWORD PTR [eax+0x1b4]
 804b422:	39 c2                	cmp    edx,eax
 804b424:	76 12                	jbe    804b438 <sys_alloc+0x3ac>
 804b426:	8b 45 08             	mov    eax,DWORD PTR [ebp+0x8]
 804b429:	8b 90 b0 01 00 00    	mov    edx,DWORD PTR [eax+0x1b0]
 804b42f:	8b 45 08             	mov    eax,DWORD PTR [ebp+0x8]
 804b432:	89 90 b4 01 00 00    	mov    DWORD PTR [eax+0x1b4],edx
 804b438:	8b 45 08             	mov    eax,DWORD PTR [ebp+0x8]
 804b43b:	8b 40 18             	mov    eax,DWORD PTR [eax+0x18]
 804b43e:	85 c0                	test   eax,eax
 804b440:	0f 85 d5 00 00 00    	jne    804b51b <sys_alloc+0x48f>
 804b446:	8b 45 08             	mov    eax,DWORD PTR [ebp+0x8]
 804b449:	8b 40 10             	mov    eax,DWORD PTR [eax+0x10]
 804b44c:	85 c0                	test   eax,eax
 804b44e:	74 0b                	je     804b45b <sys_alloc+0x3cf>
 804b450:	8b 45 08             	mov    eax,DWORD PTR [ebp+0x8]
 804b453:	8b 40 10             	mov    eax,DWORD PTR [eax+0x10]
 804b456:	3b 45 f4             	cmp    eax,DWORD PTR [ebp-0xc]
 804b459:	76 09                	jbe    804b464 <sys_alloc+0x3d8>
 804b45b:	8b 45 08             	mov    eax,DWORD PTR [ebp+0x8]
 804b45e:	8b 55 f4             	mov    edx,DWORD PTR [ebp-0xc]
 804b461:	89 50 10             	mov    DWORD PTR [eax+0x10],edx
 804b464:	8b 45 08             	mov    eax,DWORD PTR [ebp+0x8]
 804b467:	8b 55 f4             	mov    edx,DWORD PTR [ebp-0xc]
 804b46a:	89 90 bc 01 00 00    	mov    DWORD PTR [eax+0x1bc],edx
 804b470:	8b 45 08             	mov    eax,DWORD PTR [ebp+0x8]
 804b473:	8b 55 f0             	mov    edx,DWORD PTR [ebp-0x10]
 804b476:	89 90 c0 01 00 00    	mov    DWORD PTR [eax+0x1c0],edx
 804b47c:	8b 45 08             	mov    eax,DWORD PTR [ebp+0x8]
 804b47f:	8b 55 ec             	mov    edx,DWORD PTR [ebp-0x14]
 804b482:	89 90 c8 01 00 00    	mov    DWORD PTR [eax+0x1c8],edx
 804b488:	8b 15 60 0b 05 08    	mov    edx,DWORD PTR ds:0x8050b60
 804b48e:	8b 45 08             	mov    eax,DWORD PTR [ebp+0x8]
 804b491:	89 50 24             	mov    DWORD PTR [eax+0x24],edx
 804b494:	8b 45 08             	mov    eax,DWORD PTR [ebp+0x8]
 804b497:	c7 40 20 ff 0f 00 00 	mov    DWORD PTR [eax+0x20],0xfff
 804b49e:	8b 45 08             	mov    eax,DWORD PTR [ebp+0x8]
 804b4a1:	89 04 24             	mov    DWORD PTR [esp],eax
 804b4a4:	e8 8f f1 ff ff       	call   804a638 <init_bins>
 804b4a9:	81 7d 08 80 0b 05 08 	cmp    DWORD PTR [ebp+0x8],0x8050b80
 804b4b0:	75 21                	jne    804b4d3 <sys_alloc+0x447>
 804b4b2:	8b 45 f0             	mov    eax,DWORD PTR [ebp-0x10]
 804b4b5:	83 e8 28             	sub    eax,0x28
 804b4b8:	89 44 24 08          	mov    DWORD PTR [esp+0x8],eax
 804b4bc:	8b 45 f4             	mov    eax,DWORD PTR [ebp-0xc]
 804b4bf:	89 44 24 04          	mov    DWORD PTR [esp+0x4],eax
 804b4c3:	8b 45 08             	mov    eax,DWORD PTR [ebp+0x8]
 804b4c6:	89 04 24             	mov    DWORD PTR [esp],eax
 804b4c9:	e8 f9 f0 ff ff       	call   804a5c7 <init_top>
 804b4ce:	e9 bf 01 00 00       	jmp    804b692 <sys_alloc+0x606>
 804b4d3:	8b 45 08             	mov    eax,DWORD PTR [ebp+0x8]
 804b4d6:	83 e8 08             	sub    eax,0x8
 804b4d9:	8b 40 04             	mov    eax,DWORD PTR [eax+0x4]
 804b4dc:	83 e0 f8             	and    eax,0xfffffff8
 804b4df:	8d 50 f8             	lea    edx,[eax-0x8]
 804b4e2:	8b 45 08             	mov    eax,DWORD PTR [ebp+0x8]
 804b4e5:	01 d0                	add    eax,edx
 804b4e7:	89 45 b0             	mov    DWORD PTR [ebp-0x50],eax
 804b4ea:	8b 45 f0             	mov    eax,DWORD PTR [ebp-0x10]
 804b4ed:	8b 55 f4             	mov    edx,DWORD PTR [ebp-0xc]
 804b4f0:	01 d0                	add    eax,edx
 804b4f2:	89 c2                	mov    edx,eax
 804b4f4:	8b 45 b0             	mov    eax,DWORD PTR [ebp-0x50]
 804b4f7:	89 d1                	mov    ecx,edx
 804b4f9:	29 c1                	sub    ecx,eax
 804b4fb:	89 c8                	mov    eax,ecx
 804b4fd:	83 e8 28             	sub    eax,0x28
 804b500:	89 44 24 08          	mov    DWORD PTR [esp+0x8],eax
 804b504:	8b 45 b0             	mov    eax,DWORD PTR [ebp-0x50]
 804b507:	89 44 24 04          	mov    DWORD PTR [esp+0x4],eax
 804b50b:	8b 45 08             	mov    eax,DWORD PTR [ebp+0x8]
 804b50e:	89 04 24             	mov    DWORD PTR [esp],eax
 804b511:	e8 b1 f0 ff ff       	call   804a5c7 <init_top>
 804b516:	e9 77 01 00 00       	jmp    804b692 <sys_alloc+0x606>
 804b51b:	8b 45 08             	mov    eax,DWORD PTR [ebp+0x8]
 804b51e:	05 bc 01 00 00       	add    eax,0x1bc
 804b523:	89 45 e0             	mov    DWORD PTR [ebp-0x20],eax
 804b526:	eb 09                	jmp    804b531 <sys_alloc+0x4a5>
 804b528:	8b 45 e0             	mov    eax,DWORD PTR [ebp-0x20]
 804b52b:	8b 40 08             	mov    eax,DWORD PTR [eax+0x8]
 804b52e:	89 45 e0             	mov    DWORD PTR [ebp-0x20],eax
 804b531:	83 7d e0 00          	cmp    DWORD PTR [ebp-0x20],0x0
 804b535:	74 12                	je     804b549 <sys_alloc+0x4bd>
 804b537:	8b 45 e0             	mov    eax,DWORD PTR [ebp-0x20]
 804b53a:	8b 10                	mov    edx,DWORD PTR [eax]
 804b53c:	8b 45 e0             	mov    eax,DWORD PTR [ebp-0x20]
 804b53f:	8b 40 04             	mov    eax,DWORD PTR [eax+0x4]
 804b542:	01 d0                	add    eax,edx
 804b544:	3b 45 f4             	cmp    eax,DWORD PTR [ebp-0xc]
 804b547:	75 df                	jne    804b528 <sys_alloc+0x49c>
 804b549:	83 7d e0 00          	cmp    DWORD PTR [ebp-0x20],0x0
 804b54d:	74 7b                	je     804b5ca <sys_alloc+0x53e>
 804b54f:	8b 45 e0             	mov    eax,DWORD PTR [ebp-0x20]
 804b552:	8b 40 0c             	mov    eax,DWORD PTR [eax+0xc]
 804b555:	83 e0 08             	and    eax,0x8
 804b558:	85 c0                	test   eax,eax
 804b55a:	75 6e                	jne    804b5ca <sys_alloc+0x53e>
 804b55c:	8b 45 e0             	mov    eax,DWORD PTR [ebp-0x20]
 804b55f:	8b 40 0c             	mov    eax,DWORD PTR [eax+0xc]
 804b562:	83 e0 01             	and    eax,0x1
 804b565:	3b 45 ec             	cmp    eax,DWORD PTR [ebp-0x14]
 804b568:	75 60                	jne    804b5ca <sys_alloc+0x53e>
 804b56a:	8b 45 08             	mov    eax,DWORD PTR [ebp+0x8]
 804b56d:	8b 50 18             	mov    edx,DWORD PTR [eax+0x18]
 804b570:	8b 45 e0             	mov    eax,DWORD PTR [ebp-0x20]
 804b573:	8b 00                	mov    eax,DWORD PTR [eax]
 804b575:	39 c2                	cmp    edx,eax
 804b577:	72 51                	jb     804b5ca <sys_alloc+0x53e>
 804b579:	8b 45 08             	mov    eax,DWORD PTR [ebp+0x8]
 804b57c:	8b 50 18             	mov    edx,DWORD PTR [eax+0x18]
 804b57f:	8b 45 e0             	mov    eax,DWORD PTR [ebp-0x20]
 804b582:	8b 08                	mov    ecx,DWORD PTR [eax]
 804b584:	8b 45 e0             	mov    eax,DWORD PTR [ebp-0x20]
 804b587:	8b 40 04             	mov    eax,DWORD PTR [eax+0x4]
 804b58a:	01 c8                	add    eax,ecx
 804b58c:	39 c2                	cmp    edx,eax
 804b58e:	73 3a                	jae    804b5ca <sys_alloc+0x53e>
 804b590:	8b 45 e0             	mov    eax,DWORD PTR [ebp-0x20]
 804b593:	8b 50 04             	mov    edx,DWORD PTR [eax+0x4]
 804b596:	8b 45 f0             	mov    eax,DWORD PTR [ebp-0x10]
 804b599:	01 c2                	add    edx,eax
 804b59b:	8b 45 e0             	mov    eax,DWORD PTR [ebp-0x20]
 804b59e:	89 50 04             	mov    DWORD PTR [eax+0x4],edx
 804b5a1:	8b 45 08             	mov    eax,DWORD PTR [ebp+0x8]
 804b5a4:	8b 50 0c             	mov    edx,DWORD PTR [eax+0xc]
 804b5a7:	8b 45 f0             	mov    eax,DWORD PTR [ebp-0x10]
 804b5aa:	01 c2                	add    edx,eax
 804b5ac:	8b 45 08             	mov    eax,DWORD PTR [ebp+0x8]
 804b5af:	8b 40 18             	mov    eax,DWORD PTR [eax+0x18]
 804b5b2:	89 54 24 08          	mov    DWORD PTR [esp+0x8],edx
 804b5b6:	89 44 24 04          	mov    DWORD PTR [esp+0x4],eax
 804b5ba:	8b 45 08             	mov    eax,DWORD PTR [ebp+0x8]
 804b5bd:	89 04 24             	mov    DWORD PTR [esp],eax
 804b5c0:	e8 02 f0 ff ff       	call   804a5c7 <init_top>
 804b5c5:	e9 c8 00 00 00       	jmp    804b692 <sys_alloc+0x606>
 804b5ca:	8b 45 08             	mov    eax,DWORD PTR [ebp+0x8]
 804b5cd:	8b 40 10             	mov    eax,DWORD PTR [eax+0x10]
 804b5d0:	3b 45 f4             	cmp    eax,DWORD PTR [ebp-0xc]
 804b5d3:	76 09                	jbe    804b5de <sys_alloc+0x552>
 804b5d5:	8b 45 08             	mov    eax,DWORD PTR [ebp+0x8]
 804b5d8:	8b 55 f4             	mov    edx,DWORD PTR [ebp-0xc]
 804b5db:	89 50 10             	mov    DWORD PTR [eax+0x10],edx
 804b5de:	8b 45 08             	mov    eax,DWORD PTR [ebp+0x8]
 804b5e1:	05 bc 01 00 00       	add    eax,0x1bc
 804b5e6:	89 45 e0             	mov    DWORD PTR [ebp-0x20],eax
 804b5e9:	eb 09                	jmp    804b5f4 <sys_alloc+0x568>
 804b5eb:	8b 45 e0             	mov    eax,DWORD PTR [ebp-0x20]
 804b5ee:	8b 40 08             	mov    eax,DWORD PTR [eax+0x8]
 804b5f1:	89 45 e0             	mov    DWORD PTR [ebp-0x20],eax
 804b5f4:	83 7d e0 00          	cmp    DWORD PTR [ebp-0x20],0x0
 804b5f8:	74 11                	je     804b60b <sys_alloc+0x57f>
 804b5fa:	8b 45 e0             	mov    eax,DWORD PTR [ebp-0x20]
 804b5fd:	8b 00                	mov    eax,DWORD PTR [eax]
 804b5ff:	8b 55 f0             	mov    edx,DWORD PTR [ebp-0x10]
 804b602:	8b 4d f4             	mov    ecx,DWORD PTR [ebp-0xc]
 804b605:	01 ca                	add    edx,ecx
 804b607:	39 d0                	cmp    eax,edx
 804b609:	75 e0                	jne    804b5eb <sys_alloc+0x55f>
 804b60b:	83 7d e0 00          	cmp    DWORD PTR [ebp-0x20],0x0
 804b60f:	74 61                	je     804b672 <sys_alloc+0x5e6>
 804b611:	8b 45 e0             	mov    eax,DWORD PTR [ebp-0x20]
 804b614:	8b 40 0c             	mov    eax,DWORD PTR [eax+0xc]
 804b617:	83 e0 08             	and    eax,0x8
 804b61a:	85 c0                	test   eax,eax
 804b61c:	75 54                	jne    804b672 <sys_alloc+0x5e6>
 804b61e:	8b 45 e0             	mov    eax,DWORD PTR [ebp-0x20]
 804b621:	8b 40 0c             	mov    eax,DWORD PTR [eax+0xc]
 804b624:	83 e0 01             	and    eax,0x1
 804b627:	3b 45 ec             	cmp    eax,DWORD PTR [ebp-0x14]
 804b62a:	75 46                	jne    804b672 <sys_alloc+0x5e6>
 804b62c:	8b 45 e0             	mov    eax,DWORD PTR [ebp-0x20]
 804b62f:	8b 00                	mov    eax,DWORD PTR [eax]
 804b631:	89 45 ac             	mov    DWORD PTR [ebp-0x54],eax
 804b634:	8b 45 e0             	mov    eax,DWORD PTR [ebp-0x20]
 804b637:	8b 55 f4             	mov    edx,DWORD PTR [ebp-0xc]
 804b63a:	89 10                	mov    DWORD PTR [eax],edx
 804b63c:	8b 45 e0             	mov    eax,DWORD PTR [ebp-0x20]
 804b63f:	8b 50 04             	mov    edx,DWORD PTR [eax+0x4]
 804b642:	8b 45 f0             	mov    eax,DWORD PTR [ebp-0x10]
 804b645:	01 c2                	add    edx,eax
 804b647:	8b 45 e0             	mov    eax,DWORD PTR [ebp-0x20]
 804b64a:	89 50 04             	mov    DWORD PTR [eax+0x4],edx
 804b64d:	8b 45 0c             	mov    eax,DWORD PTR [ebp+0xc]
 804b650:	89 44 24 0c          	mov    DWORD PTR [esp+0xc],eax
 804b654:	8b 45 ac             	mov    eax,DWORD PTR [ebp-0x54]
 804b657:	89 44 24 08          	mov    DWORD PTR [esp+0x8],eax
 804b65b:	8b 45 f4             	mov    eax,DWORD PTR [ebp-0xc]
 804b65e:	89 44 24 04          	mov    DWORD PTR [esp+0x4],eax
 804b662:	8b 45 08             	mov    eax,DWORD PTR [ebp+0x8]
 804b665:	89 04 24             	mov    DWORD PTR [esp],eax
 804b668:	e8 15 f0 ff ff       	call   804a682 <prepend_alloc>
 804b66d:	e9 99 00 00 00       	jmp    804b70b <sys_alloc+0x67f>
 804b672:	8b 45 ec             	mov    eax,DWORD PTR [ebp-0x14]
 804b675:	89 44 24 0c          	mov    DWORD PTR [esp+0xc],eax
 804b679:	8b 45 f0             	mov    eax,DWORD PTR [ebp-0x10]
 804b67c:	89 44 24 08          	mov    DWORD PTR [esp+0x8],eax
 804b680:	8b 45 f4             	mov    eax,DWORD PTR [ebp-0xc]
 804b683:	89 44 24 04          	mov    DWORD PTR [esp+0x4],eax
 804b687:	8b 45 08             	mov    eax,DWORD PTR [ebp+0x8]
 804b68a:	89 04 24             	mov    DWORD PTR [esp],eax
 804b68d:	e8 cd f5 ff ff       	call   804ac5f <add_segment>
 804b692:	8b 45 08             	mov    eax,DWORD PTR [ebp+0x8]
 804b695:	8b 40 0c             	mov    eax,DWORD PTR [eax+0xc]
 804b698:	3b 45 0c             	cmp    eax,DWORD PTR [ebp+0xc]
 804b69b:	76 5e                	jbe    804b6fb <sys_alloc+0x66f>
 804b69d:	8b 45 08             	mov    eax,DWORD PTR [ebp+0x8]
 804b6a0:	8b 40 0c             	mov    eax,DWORD PTR [eax+0xc]
 804b6a3:	89 c2                	mov    edx,eax
 804b6a5:	2b 55 0c             	sub    edx,DWORD PTR [ebp+0xc]
 804b6a8:	8b 45 08             	mov    eax,DWORD PTR [ebp+0x8]
 804b6ab:	89 50 0c             	mov    DWORD PTR [eax+0xc],edx
 804b6ae:	8b 45 08             	mov    eax,DWORD PTR [ebp+0x8]
 804b6b1:	8b 40 0c             	mov    eax,DWORD PTR [eax+0xc]
 804b6b4:	89 45 a8             	mov    DWORD PTR [ebp-0x58],eax
 804b6b7:	8b 45 08             	mov    eax,DWORD PTR [ebp+0x8]
 804b6ba:	8b 40 18             	mov    eax,DWORD PTR [eax+0x18]
 804b6bd:	89 45 a4             	mov    DWORD PTR [ebp-0x5c],eax
 804b6c0:	8b 45 0c             	mov    eax,DWORD PTR [ebp+0xc]
 804b6c3:	8b 55 a4             	mov    edx,DWORD PTR [ebp-0x5c]
 804b6c6:	01 c2                	add    edx,eax
 804b6c8:	8b 45 08             	mov    eax,DWORD PTR [ebp+0x8]
 804b6cb:	89 50 18             	mov    DWORD PTR [eax+0x18],edx
 804b6ce:	8b 45 08             	mov    eax,DWORD PTR [ebp+0x8]
 804b6d1:	8b 40 18             	mov    eax,DWORD PTR [eax+0x18]
 804b6d4:	89 45 a0             	mov    DWORD PTR [ebp-0x60],eax
 804b6d7:	8b 45 a8             	mov    eax,DWORD PTR [ebp-0x58]
 804b6da:	89 c2                	mov    edx,eax
 804b6dc:	83 ca 01             	or     edx,0x1
 804b6df:	8b 45 a0             	mov    eax,DWORD PTR [ebp-0x60]
 804b6e2:	89 50 04             	mov    DWORD PTR [eax+0x4],edx
 804b6e5:	8b 45 0c             	mov    eax,DWORD PTR [ebp+0xc]
 804b6e8:	89 c2                	mov    edx,eax
 804b6ea:	83 ca 03             	or     edx,0x3
 804b6ed:	8b 45 a4             	mov    eax,DWORD PTR [ebp-0x5c]
 804b6f0:	89 50 04             	mov    DWORD PTR [eax+0x4],edx
 804b6f3:	8b 45 a4             	mov    eax,DWORD PTR [ebp-0x5c]
 804b6f6:	83 c0 08             	add    eax,0x8
 804b6f9:	eb 10                	jmp    804b70b <sys_alloc+0x67f>
 804b6fb:	e8 c0 d3 ff ff       	call   8048ac0 <__errno_location@plt>
 804b700:	c7 00 0c 00 00 00    	mov    DWORD PTR [eax],0xc
 804b706:	b8 00 00 00 00       	mov    eax,0x0
 804b70b:	c9                   	leave  
 804b70c:	c3                   	ret    

0804b70d <release_unused_segments>:
 804b70d:	55                   	push   ebp
 804b70e:	89 e5                	mov    ebp,esp
 804b710:	56                   	push   esi
 804b711:	53                   	push   ebx
 804b712:	83 c4 80             	add    esp,0xffffff80
 804b715:	c7 45 f4 00 00 00 00 	mov    DWORD PTR [ebp-0xc],0x0
 804b71c:	c7 45 f0 00 00 00 00 	mov    DWORD PTR [ebp-0x10],0x0
 804b723:	8b 45 08             	mov    eax,DWORD PTR [ebp+0x8]
 804b726:	05 bc 01 00 00       	add    eax,0x1bc
 804b72b:	89 45 ec             	mov    DWORD PTR [ebp-0x14],eax
 804b72e:	8b 45 ec             	mov    eax,DWORD PTR [ebp-0x14]
 804b731:	8b 40 08             	mov    eax,DWORD PTR [eax+0x8]
 804b734:	89 45 e8             	mov    DWORD PTR [ebp-0x18],eax
 804b737:	e9 4c 04 00 00       	jmp    804bb88 <release_unused_segments+0x47b>
 804b73c:	8b 45 e8             	mov    eax,DWORD PTR [ebp-0x18]
 804b73f:	8b 00                	mov    eax,DWORD PTR [eax]
 804b741:	89 45 cc             	mov    DWORD PTR [ebp-0x34],eax
 804b744:	8b 45 e8             	mov    eax,DWORD PTR [ebp-0x18]
 804b747:	8b 40 04             	mov    eax,DWORD PTR [eax+0x4]
 804b74a:	89 45 c8             	mov    DWORD PTR [ebp-0x38],eax
 804b74d:	8b 45 e8             	mov    eax,DWORD PTR [ebp-0x18]
 804b750:	8b 40 08             	mov    eax,DWORD PTR [eax+0x8]
 804b753:	89 45 c4             	mov    DWORD PTR [ebp-0x3c],eax
 804b756:	83 45 f0 01          	add    DWORD PTR [ebp-0x10],0x1
 804b75a:	8b 45 e8             	mov    eax,DWORD PTR [ebp-0x18]
 804b75d:	8b 40 0c             	mov    eax,DWORD PTR [eax+0xc]
 804b760:	83 e0 01             	and    eax,0x1
 804b763:	85 c0                	test   eax,eax
 804b765:	0f 84 11 04 00 00    	je     804bb7c <release_unused_segments+0x46f>
 804b76b:	8b 45 e8             	mov    eax,DWORD PTR [ebp-0x18]
 804b76e:	8b 40 0c             	mov    eax,DWORD PTR [eax+0xc]
 804b771:	83 e0 08             	and    eax,0x8
 804b774:	85 c0                	test   eax,eax
 804b776:	0f 85 00 04 00 00    	jne    804bb7c <release_unused_segments+0x46f>
 804b77c:	8b 45 cc             	mov    eax,DWORD PTR [ebp-0x34]
 804b77f:	83 c0 08             	add    eax,0x8
 804b782:	83 e0 07             	and    eax,0x7
 804b785:	85 c0                	test   eax,eax
 804b787:	74 0d                	je     804b796 <release_unused_segments+0x89>
 804b789:	8b 45 cc             	mov    eax,DWORD PTR [ebp-0x34]
 804b78c:	83 c0 08             	add    eax,0x8
 804b78f:	f7 d8                	neg    eax
 804b791:	83 e0 07             	and    eax,0x7
 804b794:	eb 05                	jmp    804b79b <release_unused_segments+0x8e>
 804b796:	b8 00 00 00 00       	mov    eax,0x0
 804b79b:	8b 55 cc             	mov    edx,DWORD PTR [ebp-0x34]
 804b79e:	01 d0                	add    eax,edx
 804b7a0:	89 45 c0             	mov    DWORD PTR [ebp-0x40],eax
 804b7a3:	8b 45 c0             	mov    eax,DWORD PTR [ebp-0x40]
 804b7a6:	8b 40 04             	mov    eax,DWORD PTR [eax+0x4]
 804b7a9:	83 e0 f8             	and    eax,0xfffffff8
 804b7ac:	89 45 bc             	mov    DWORD PTR [ebp-0x44],eax
 804b7af:	8b 45 c0             	mov    eax,DWORD PTR [ebp-0x40]
 804b7b2:	8b 40 04             	mov    eax,DWORD PTR [eax+0x4]
 804b7b5:	83 e0 03             	and    eax,0x3
 804b7b8:	83 f8 01             	cmp    eax,0x1
 804b7bb:	0f 85 bb 03 00 00    	jne    804bb7c <release_unused_segments+0x46f>
 804b7c1:	8b 45 bc             	mov    eax,DWORD PTR [ebp-0x44]
 804b7c4:	8b 55 c0             	mov    edx,DWORD PTR [ebp-0x40]
 804b7c7:	01 c2                	add    edx,eax
 804b7c9:	8b 45 c8             	mov    eax,DWORD PTR [ebp-0x38]
 804b7cc:	8d 48 d8             	lea    ecx,[eax-0x28]
 804b7cf:	8b 45 cc             	mov    eax,DWORD PTR [ebp-0x34]
 804b7d2:	01 c8                	add    eax,ecx
 804b7d4:	39 c2                	cmp    edx,eax
 804b7d6:	0f 82 a0 03 00 00    	jb     804bb7c <release_unused_segments+0x46f>
 804b7dc:	8b 45 c0             	mov    eax,DWORD PTR [ebp-0x40]
 804b7df:	89 45 b8             	mov    DWORD PTR [ebp-0x48],eax
 804b7e2:	8b 45 08             	mov    eax,DWORD PTR [ebp+0x8]
 804b7e5:	8b 40 14             	mov    eax,DWORD PTR [eax+0x14]
 804b7e8:	3b 45 c0             	cmp    eax,DWORD PTR [ebp-0x40]
 804b7eb:	75 19                	jne    804b806 <release_unused_segments+0xf9>
 804b7ed:	8b 45 08             	mov    eax,DWORD PTR [ebp+0x8]
 804b7f0:	c7 40 14 00 00 00 00 	mov    DWORD PTR [eax+0x14],0x0
 804b7f7:	8b 45 08             	mov    eax,DWORD PTR [ebp+0x8]
 804b7fa:	c7 40 08 00 00 00 00 	mov    DWORD PTR [eax+0x8],0x0
 804b801:	e9 77 01 00 00       	jmp    804b97d <release_unused_segments+0x270>
 804b806:	8b 45 b8             	mov    eax,DWORD PTR [ebp-0x48]
 804b809:	8b 40 18             	mov    eax,DWORD PTR [eax+0x18]
 804b80c:	89 45 b4             	mov    DWORD PTR [ebp-0x4c],eax
 804b80f:	8b 45 b8             	mov    eax,DWORD PTR [ebp-0x48]
 804b812:	8b 40 0c             	mov    eax,DWORD PTR [eax+0xc]
 804b815:	3b 45 b8             	cmp    eax,DWORD PTR [ebp-0x48]
 804b818:	74 26                	je     804b840 <release_unused_segments+0x133>
 804b81a:	8b 45 b8             	mov    eax,DWORD PTR [ebp-0x48]
 804b81d:	8b 40 08             	mov    eax,DWORD PTR [eax+0x8]
 804b820:	89 45 b0             	mov    DWORD PTR [ebp-0x50],eax
 804b823:	8b 45 b8             	mov    eax,DWORD PTR [ebp-0x48]
 804b826:	8b 40 0c             	mov    eax,DWORD PTR [eax+0xc]
 804b829:	89 45 e4             	mov    DWORD PTR [ebp-0x1c],eax
 804b82c:	8b 45 b0             	mov    eax,DWORD PTR [ebp-0x50]
 804b82f:	8b 55 e4             	mov    edx,DWORD PTR [ebp-0x1c]
 804b832:	89 50 0c             	mov    DWORD PTR [eax+0xc],edx
 804b835:	8b 45 e4             	mov    eax,DWORD PTR [ebp-0x1c]
 804b838:	8b 55 b0             	mov    edx,DWORD PTR [ebp-0x50]
 804b83b:	89 50 08             	mov    DWORD PTR [eax+0x8],edx
 804b83e:	eb 6b                	jmp    804b8ab <release_unused_segments+0x19e>
 804b840:	8b 45 b8             	mov    eax,DWORD PTR [ebp-0x48]
 804b843:	83 c0 14             	add    eax,0x14
 804b846:	89 45 e0             	mov    DWORD PTR [ebp-0x20],eax
 804b849:	8b 45 e0             	mov    eax,DWORD PTR [ebp-0x20]
 804b84c:	8b 00                	mov    eax,DWORD PTR [eax]
 804b84e:	89 45 e4             	mov    DWORD PTR [ebp-0x1c],eax
 804b851:	83 7d e4 00          	cmp    DWORD PTR [ebp-0x1c],0x0
 804b855:	75 27                	jne    804b87e <release_unused_segments+0x171>
 804b857:	8b 45 b8             	mov    eax,DWORD PTR [ebp-0x48]
 804b85a:	83 c0 10             	add    eax,0x10
 804b85d:	89 45 e0             	mov    DWORD PTR [ebp-0x20],eax
 804b860:	8b 45 e0             	mov    eax,DWORD PTR [ebp-0x20]
 804b863:	8b 00                	mov    eax,DWORD PTR [eax]
 804b865:	89 45 e4             	mov    DWORD PTR [ebp-0x1c],eax
 804b868:	83 7d e4 00          	cmp    DWORD PTR [ebp-0x1c],0x0
 804b86c:	74 3d                	je     804b8ab <release_unused_segments+0x19e>
 804b86e:	eb 0e                	jmp    804b87e <release_unused_segments+0x171>
 804b870:	8b 45 dc             	mov    eax,DWORD PTR [ebp-0x24]
 804b873:	89 45 e0             	mov    DWORD PTR [ebp-0x20],eax
 804b876:	8b 45 e0             	mov    eax,DWORD PTR [ebp-0x20]
 804b879:	8b 00                	mov    eax,DWORD PTR [eax]
 804b87b:	89 45 e4             	mov    DWORD PTR [ebp-0x1c],eax
 804b87e:	8b 45 e4             	mov    eax,DWORD PTR [ebp-0x1c]
 804b881:	83 c0 14             	add    eax,0x14
 804b884:	89 45 dc             	mov    DWORD PTR [ebp-0x24],eax
 804b887:	8b 45 dc             	mov    eax,DWORD PTR [ebp-0x24]
 804b88a:	8b 00                	mov    eax,DWORD PTR [eax]
 804b88c:	85 c0                	test   eax,eax
 804b88e:	75 e0                	jne    804b870 <release_unused_segments+0x163>
 804b890:	8b 45 e4             	mov    eax,DWORD PTR [ebp-0x1c]
 804b893:	83 c0 10             	add    eax,0x10
 804b896:	89 45 dc             	mov    DWORD PTR [ebp-0x24],eax
 804b899:	8b 45 dc             	mov    eax,DWORD PTR [ebp-0x24]
 804b89c:	8b 00                	mov    eax,DWORD PTR [eax]
 804b89e:	85 c0                	test   eax,eax
 804b8a0:	75 ce                	jne    804b870 <release_unused_segments+0x163>
 804b8a2:	8b 45 e0             	mov    eax,DWORD PTR [ebp-0x20]
 804b8a5:	c7 00 00 00 00 00    	mov    DWORD PTR [eax],0x0
 804b8ab:	83 7d b4 00          	cmp    DWORD PTR [ebp-0x4c],0x0
 804b8af:	0f 84 c8 00 00 00    	je     804b97d <release_unused_segments+0x270>
 804b8b5:	8b 45 b8             	mov    eax,DWORD PTR [ebp-0x48]
 804b8b8:	8b 40 1c             	mov    eax,DWORD PTR [eax+0x1c]
 804b8bb:	83 c0 4c             	add    eax,0x4c
 804b8be:	8d 14 85 00 00 00 00 	lea    edx,[eax*4+0x0]
 804b8c5:	8b 45 08             	mov    eax,DWORD PTR [ebp+0x8]
 804b8c8:	01 d0                	add    eax,edx
 804b8ca:	89 45 ac             	mov    DWORD PTR [ebp-0x54],eax
 804b8cd:	8b 45 ac             	mov    eax,DWORD PTR [ebp-0x54]
 804b8d0:	8b 00                	mov    eax,DWORD PTR [eax]
 804b8d2:	3b 45 b8             	cmp    eax,DWORD PTR [ebp-0x48]
 804b8d5:	75 36                	jne    804b90d <release_unused_segments+0x200>
 804b8d7:	8b 45 ac             	mov    eax,DWORD PTR [ebp-0x54]
 804b8da:	8b 55 e4             	mov    edx,DWORD PTR [ebp-0x1c]
 804b8dd:	89 10                	mov    DWORD PTR [eax],edx
 804b8df:	8b 45 ac             	mov    eax,DWORD PTR [ebp-0x54]
 804b8e2:	8b 00                	mov    eax,DWORD PTR [eax]
 804b8e4:	85 c0                	test   eax,eax
 804b8e6:	75 44                	jne    804b92c <release_unused_segments+0x21f>
 804b8e8:	8b 45 08             	mov    eax,DWORD PTR [ebp+0x8]
 804b8eb:	8b 50 04             	mov    edx,DWORD PTR [eax+0x4]
 804b8ee:	8b 45 b8             	mov    eax,DWORD PTR [ebp-0x48]
 804b8f1:	8b 40 1c             	mov    eax,DWORD PTR [eax+0x1c]
 804b8f4:	bb 01 00 00 00       	mov    ebx,0x1
 804b8f9:	89 de                	mov    esi,ebx
 804b8fb:	89 c1                	mov    ecx,eax
 804b8fd:	d3 e6                	shl    esi,cl
 804b8ff:	89 f0                	mov    eax,esi
 804b901:	f7 d0                	not    eax
 804b903:	21 c2                	and    edx,eax
 804b905:	8b 45 08             	mov    eax,DWORD PTR [ebp+0x8]
 804b908:	89 50 04             	mov    DWORD PTR [eax+0x4],edx
 804b90b:	eb 1f                	jmp    804b92c <release_unused_segments+0x21f>
 804b90d:	8b 45 b4             	mov    eax,DWORD PTR [ebp-0x4c]
 804b910:	8b 40 10             	mov    eax,DWORD PTR [eax+0x10]
 804b913:	3b 45 b8             	cmp    eax,DWORD PTR [ebp-0x48]
 804b916:	75 0b                	jne    804b923 <release_unused_segments+0x216>
 804b918:	8b 45 b4             	mov    eax,DWORD PTR [ebp-0x4c]
 804b91b:	8b 55 e4             	mov    edx,DWORD PTR [ebp-0x1c]
 804b91e:	89 50 10             	mov    DWORD PTR [eax+0x10],edx
 804b921:	eb 09                	jmp    804b92c <release_unused_segments+0x21f>
 804b923:	8b 45 b4             	mov    eax,DWORD PTR [ebp-0x4c]
 804b926:	8b 55 e4             	mov    edx,DWORD PTR [ebp-0x1c]
 804b929:	89 50 14             	mov    DWORD PTR [eax+0x14],edx
 804b92c:	83 7d e4 00          	cmp    DWORD PTR [ebp-0x1c],0x0
 804b930:	74 4b                	je     804b97d <release_unused_segments+0x270>
 804b932:	8b 45 e4             	mov    eax,DWORD PTR [ebp-0x1c]
 804b935:	8b 55 b4             	mov    edx,DWORD PTR [ebp-0x4c]
 804b938:	89 50 18             	mov    DWORD PTR [eax+0x18],edx
 804b93b:	8b 45 b8             	mov    eax,DWORD PTR [ebp-0x48]
 804b93e:	8b 40 10             	mov    eax,DWORD PTR [eax+0x10]
 804b941:	89 45 a8             	mov    DWORD PTR [ebp-0x58],eax
 804b944:	83 7d a8 00          	cmp    DWORD PTR [ebp-0x58],0x0
 804b948:	74 12                	je     804b95c <release_unused_segments+0x24f>
 804b94a:	8b 45 e4             	mov    eax,DWORD PTR [ebp-0x1c]
 804b94d:	8b 55 a8             	mov    edx,DWORD PTR [ebp-0x58]
 804b950:	89 50 10             	mov    DWORD PTR [eax+0x10],edx
 804b953:	8b 45 a8             	mov    eax,DWORD PTR [ebp-0x58]
 804b956:	8b 55 e4             	mov    edx,DWORD PTR [ebp-0x1c]
 804b959:	89 50 18             	mov    DWORD PTR [eax+0x18],edx
 804b95c:	8b 45 b8             	mov    eax,DWORD PTR [ebp-0x48]
 804b95f:	8b 40 14             	mov    eax,DWORD PTR [eax+0x14]
 804b962:	89 45 a4             	mov    DWORD PTR [ebp-0x5c],eax
 804b965:	83 7d a4 00          	cmp    DWORD PTR [ebp-0x5c],0x0
 804b969:	74 12                	je     804b97d <release_unused_segments+0x270>
 804b96b:	8b 45 e4             	mov    eax,DWORD PTR [ebp-0x1c]
 804b96e:	8b 55 a4             	mov    edx,DWORD PTR [ebp-0x5c]
 804b971:	89 50 14             	mov    DWORD PTR [eax+0x14],edx
 804b974:	8b 45 a4             	mov    eax,DWORD PTR [ebp-0x5c]
 804b977:	8b 55 e4             	mov    edx,DWORD PTR [ebp-0x1c]
 804b97a:	89 50 18             	mov    DWORD PTR [eax+0x18],edx
 804b97d:	8b 45 c8             	mov    eax,DWORD PTR [ebp-0x38]
 804b980:	89 44 24 04          	mov    DWORD PTR [esp+0x4],eax
 804b984:	8b 45 cc             	mov    eax,DWORD PTR [ebp-0x34]
 804b987:	89 04 24             	mov    DWORD PTR [esp],eax
 804b98a:	e8 41 d1 ff ff       	call   8048ad0 <munmap@plt>
 804b98f:	85 c0                	test   eax,eax
 804b991:	75 31                	jne    804b9c4 <release_unused_segments+0x2b7>
 804b993:	8b 45 c8             	mov    eax,DWORD PTR [ebp-0x38]
 804b996:	01 45 f4             	add    DWORD PTR [ebp-0xc],eax
 804b999:	8b 45 08             	mov    eax,DWORD PTR [ebp+0x8]
 804b99c:	8b 80 b0 01 00 00    	mov    eax,DWORD PTR [eax+0x1b0]
 804b9a2:	89 c2                	mov    edx,eax
 804b9a4:	2b 55 c8             	sub    edx,DWORD PTR [ebp-0x38]
 804b9a7:	8b 45 08             	mov    eax,DWORD PTR [ebp+0x8]
 804b9aa:	89 90 b0 01 00 00    	mov    DWORD PTR [eax+0x1b0],edx
 804b9b0:	8b 45 ec             	mov    eax,DWORD PTR [ebp-0x14]
 804b9b3:	89 45 e8             	mov    DWORD PTR [ebp-0x18],eax
 804b9b6:	8b 45 e8             	mov    eax,DWORD PTR [ebp-0x18]
 804b9b9:	8b 55 c4             	mov    edx,DWORD PTR [ebp-0x3c]
 804b9bc:	89 50 08             	mov    DWORD PTR [eax+0x8],edx
 804b9bf:	e9 b8 01 00 00       	jmp    804bb7c <release_unused_segments+0x46f>
 804b9c4:	8b 45 bc             	mov    eax,DWORD PTR [ebp-0x44]
 804b9c7:	c1 e8 08             	shr    eax,0x8
 804b9ca:	89 45 a0             	mov    DWORD PTR [ebp-0x60],eax
 804b9cd:	83 7d a0 00          	cmp    DWORD PTR [ebp-0x60],0x0
 804b9d1:	75 09                	jne    804b9dc <release_unused_segments+0x2cf>
 804b9d3:	c7 45 d8 00 00 00 00 	mov    DWORD PTR [ebp-0x28],0x0
 804b9da:	eb 38                	jmp    804ba14 <release_unused_segments+0x307>
 804b9dc:	81 7d a0 ff ff 00 00 	cmp    DWORD PTR [ebp-0x60],0xffff
 804b9e3:	76 09                	jbe    804b9ee <release_unused_segments+0x2e1>
 804b9e5:	c7 45 d8 1f 00 00 00 	mov    DWORD PTR [ebp-0x28],0x1f
 804b9ec:	eb 26                	jmp    804ba14 <release_unused_segments+0x307>
 804b9ee:	0f bd 5d a0          	bsr    ebx,DWORD PTR [ebp-0x60]
 804b9f2:	89 5d 9c             	mov    DWORD PTR [ebp-0x64],ebx
 804b9f5:	8b 45 9c             	mov    eax,DWORD PTR [ebp-0x64]
 804b9f8:	8d 1c 00             	lea    ebx,[eax+eax*1]
 804b9fb:	8b 45 9c             	mov    eax,DWORD PTR [ebp-0x64]
 804b9fe:	83 c0 07             	add    eax,0x7
 804ba01:	8b 55 bc             	mov    edx,DWORD PTR [ebp-0x44]
 804ba04:	89 d6                	mov    esi,edx
 804ba06:	89 c1                	mov    ecx,eax
 804ba08:	d3 ee                	shr    esi,cl
 804ba0a:	89 f0                	mov    eax,esi
 804ba0c:	83 e0 01             	and    eax,0x1
 804ba0f:	01 d8                	add    eax,ebx
 804ba11:	89 45 d8             	mov    DWORD PTR [ebp-0x28],eax
 804ba14:	8b 45 d8             	mov    eax,DWORD PTR [ebp-0x28]
 804ba17:	83 c0 4c             	add    eax,0x4c
 804ba1a:	8d 14 85 00 00 00 00 	lea    edx,[eax*4+0x0]
 804ba21:	8b 45 08             	mov    eax,DWORD PTR [ebp+0x8]
 804ba24:	01 d0                	add    eax,edx
 804ba26:	89 45 98             	mov    DWORD PTR [ebp-0x68],eax
 804ba29:	8b 45 b8             	mov    eax,DWORD PTR [ebp-0x48]
 804ba2c:	8b 55 d8             	mov    edx,DWORD PTR [ebp-0x28]
 804ba2f:	89 50 1c             	mov    DWORD PTR [eax+0x1c],edx
 804ba32:	8b 45 b8             	mov    eax,DWORD PTR [ebp-0x48]
 804ba35:	c7 40 14 00 00 00 00 	mov    DWORD PTR [eax+0x14],0x0
 804ba3c:	8b 45 b8             	mov    eax,DWORD PTR [ebp-0x48]
 804ba3f:	8b 50 14             	mov    edx,DWORD PTR [eax+0x14]
 804ba42:	8b 45 b8             	mov    eax,DWORD PTR [ebp-0x48]
 804ba45:	89 50 10             	mov    DWORD PTR [eax+0x10],edx
 804ba48:	8b 45 08             	mov    eax,DWORD PTR [ebp+0x8]
 804ba4b:	8b 50 04             	mov    edx,DWORD PTR [eax+0x4]
 804ba4e:	8b 45 d8             	mov    eax,DWORD PTR [ebp-0x28]
 804ba51:	bb 01 00 00 00       	mov    ebx,0x1
 804ba56:	89 de                	mov    esi,ebx
 804ba58:	89 c1                	mov    ecx,eax
 804ba5a:	d3 e6                	shl    esi,cl
 804ba5c:	89 f0                	mov    eax,esi
 804ba5e:	21 d0                	and    eax,edx
 804ba60:	85 c0                	test   eax,eax
 804ba62:	75 49                	jne    804baad <release_unused_segments+0x3a0>
 804ba64:	8b 45 08             	mov    eax,DWORD PTR [ebp+0x8]
 804ba67:	8b 50 04             	mov    edx,DWORD PTR [eax+0x4]
 804ba6a:	8b 45 d8             	mov    eax,DWORD PTR [ebp-0x28]
 804ba6d:	bb 01 00 00 00       	mov    ebx,0x1
 804ba72:	89 de                	mov    esi,ebx
 804ba74:	89 c1                	mov    ecx,eax
 804ba76:	d3 e6                	shl    esi,cl
 804ba78:	89 f0                	mov    eax,esi
 804ba7a:	09 c2                	or     edx,eax
 804ba7c:	8b 45 08             	mov    eax,DWORD PTR [ebp+0x8]
 804ba7f:	89 50 04             	mov    DWORD PTR [eax+0x4],edx
 804ba82:	8b 45 98             	mov    eax,DWORD PTR [ebp-0x68]
 804ba85:	8b 55 b8             	mov    edx,DWORD PTR [ebp-0x48]
 804ba88:	89 10                	mov    DWORD PTR [eax],edx
 804ba8a:	8b 45 b8             	mov    eax,DWORD PTR [ebp-0x48]
 804ba8d:	8b 55 98             	mov    edx,DWORD PTR [ebp-0x68]
 804ba90:	89 50 18             	mov    DWORD PTR [eax+0x18],edx
 804ba93:	8b 45 b8             	mov    eax,DWORD PTR [ebp-0x48]
 804ba96:	8b 55 b8             	mov    edx,DWORD PTR [ebp-0x48]
 804ba99:	89 50 0c             	mov    DWORD PTR [eax+0xc],edx
 804ba9c:	8b 45 b8             	mov    eax,DWORD PTR [ebp-0x48]
 804ba9f:	8b 50 0c             	mov    edx,DWORD PTR [eax+0xc]
 804baa2:	8b 45 b8             	mov    eax,DWORD PTR [ebp-0x48]
 804baa5:	89 50 08             	mov    DWORD PTR [eax+0x8],edx
 804baa8:	e9 cf 00 00 00       	jmp    804bb7c <release_unused_segments+0x46f>
 804baad:	8b 45 98             	mov    eax,DWORD PTR [ebp-0x68]
 804bab0:	8b 00                	mov    eax,DWORD PTR [eax]
 804bab2:	89 45 d4             	mov    DWORD PTR [ebp-0x2c],eax
 804bab5:	83 7d d8 1f          	cmp    DWORD PTR [ebp-0x28],0x1f
 804bab9:	74 10                	je     804bacb <release_unused_segments+0x3be>
 804babb:	8b 45 d8             	mov    eax,DWORD PTR [ebp-0x28]
 804babe:	89 c2                	mov    edx,eax
 804bac0:	d1 ea                	shr    edx,1
 804bac2:	b8 19 00 00 00       	mov    eax,0x19
 804bac7:	29 d0                	sub    eax,edx
 804bac9:	eb 05                	jmp    804bad0 <release_unused_segments+0x3c3>
 804bacb:	b8 00 00 00 00       	mov    eax,0x0
 804bad0:	8b 55 bc             	mov    edx,DWORD PTR [ebp-0x44]
 804bad3:	89 d3                	mov    ebx,edx
 804bad5:	89 c1                	mov    ecx,eax
 804bad7:	d3 e3                	shl    ebx,cl
 804bad9:	89 d8                	mov    eax,ebx
 804badb:	89 45 d0             	mov    DWORD PTR [ebp-0x30],eax
 804bade:	8b 45 d4             	mov    eax,DWORD PTR [ebp-0x2c]
 804bae1:	8b 40 04             	mov    eax,DWORD PTR [eax+0x4]
 804bae4:	83 e0 f8             	and    eax,0xfffffff8
 804bae7:	3b 45 bc             	cmp    eax,DWORD PTR [ebp-0x44]
 804baea:	74 56                	je     804bb42 <release_unused_segments+0x435>
 804baec:	8b 45 d0             	mov    eax,DWORD PTR [ebp-0x30]
 804baef:	c1 e8 1f             	shr    eax,0x1f
 804baf2:	83 c0 04             	add    eax,0x4
 804baf5:	8d 14 85 00 00 00 00 	lea    edx,[eax*4+0x0]
 804bafc:	8b 45 d4             	mov    eax,DWORD PTR [ebp-0x2c]
 804baff:	01 d0                	add    eax,edx
 804bb01:	89 45 94             	mov    DWORD PTR [ebp-0x6c],eax
 804bb04:	d1 65 d0             	shl    DWORD PTR [ebp-0x30],1
 804bb07:	8b 45 94             	mov    eax,DWORD PTR [ebp-0x6c]
 804bb0a:	8b 00                	mov    eax,DWORD PTR [eax]
 804bb0c:	85 c0                	test   eax,eax
 804bb0e:	74 0a                	je     804bb1a <release_unused_segments+0x40d>
 804bb10:	8b 45 94             	mov    eax,DWORD PTR [ebp-0x6c]
 804bb13:	8b 00                	mov    eax,DWORD PTR [eax]
 804bb15:	89 45 d4             	mov    DWORD PTR [ebp-0x2c],eax
 804bb18:	eb c4                	jmp    804bade <release_unused_segments+0x3d1>
 804bb1a:	8b 45 94             	mov    eax,DWORD PTR [ebp-0x6c]
 804bb1d:	8b 55 b8             	mov    edx,DWORD PTR [ebp-0x48]
 804bb20:	89 10                	mov    DWORD PTR [eax],edx
 804bb22:	8b 45 b8             	mov    eax,DWORD PTR [ebp-0x48]
 804bb25:	8b 55 d4             	mov    edx,DWORD PTR [ebp-0x2c]
 804bb28:	89 50 18             	mov    DWORD PTR [eax+0x18],edx
 804bb2b:	8b 45 b8             	mov    eax,DWORD PTR [ebp-0x48]
 804bb2e:	8b 55 b8             	mov    edx,DWORD PTR [ebp-0x48]
 804bb31:	89 50 0c             	mov    DWORD PTR [eax+0xc],edx
 804bb34:	8b 45 b8             	mov    eax,DWORD PTR [ebp-0x48]
 804bb37:	8b 50 0c             	mov    edx,DWORD PTR [eax+0xc]
 804bb3a:	8b 45 b8             	mov    eax,DWORD PTR [ebp-0x48]
 804bb3d:	89 50 08             	mov    DWORD PTR [eax+0x8],edx
 804bb40:	eb 3a                	jmp    804bb7c <release_unused_segments+0x46f>
 804bb42:	8b 45 d4             	mov    eax,DWORD PTR [ebp-0x2c]
 804bb45:	8b 40 08             	mov    eax,DWORD PTR [eax+0x8]
 804bb48:	89 45 90             	mov    DWORD PTR [ebp-0x70],eax
 804bb4b:	8b 45 90             	mov    eax,DWORD PTR [ebp-0x70]
 804bb4e:	8b 55 b8             	mov    edx,DWORD PTR [ebp-0x48]
 804bb51:	89 50 0c             	mov    DWORD PTR [eax+0xc],edx
 804bb54:	8b 45 90             	mov    eax,DWORD PTR [ebp-0x70]
 804bb57:	8b 50 0c             	mov    edx,DWORD PTR [eax+0xc]
 804bb5a:	8b 45 d4             	mov    eax,DWORD PTR [ebp-0x2c]
 804bb5d:	89 50 08             	mov    DWORD PTR [eax+0x8],edx
 804bb60:	8b 45 b8             	mov    eax,DWORD PTR [ebp-0x48]
 804bb63:	8b 55 90             	mov    edx,DWORD PTR [ebp-0x70]
 804bb66:	89 50 08             	mov    DWORD PTR [eax+0x8],edx
 804bb69:	8b 45 b8             	mov    eax,DWORD PTR [ebp-0x48]
 804bb6c:	8b 55 d4             	mov    edx,DWORD PTR [ebp-0x2c]
 804bb6f:	89 50 0c             	mov    DWORD PTR [eax+0xc],edx
 804bb72:	8b 45 b8             	mov    eax,DWORD PTR [ebp-0x48]
 804bb75:	c7 40 18 00 00 00 00 	mov    DWORD PTR [eax+0x18],0x0
 804bb7c:	8b 45 e8             	mov    eax,DWORD PTR [ebp-0x18]
 804bb7f:	89 45 ec             	mov    DWORD PTR [ebp-0x14],eax
 804bb82:	8b 45 c4             	mov    eax,DWORD PTR [ebp-0x3c]
 804bb85:	89 45 e8             	mov    DWORD PTR [ebp-0x18],eax
 804bb88:	83 7d e8 00          	cmp    DWORD PTR [ebp-0x18],0x0
 804bb8c:	0f 85 aa fb ff ff    	jne    804b73c <release_unused_segments+0x2f>
 804bb92:	8b 45 f0             	mov    eax,DWORD PTR [ebp-0x10]
 804bb95:	3d ff 0f 00 00       	cmp    eax,0xfff
 804bb9a:	7d 05                	jge    804bba1 <release_unused_segments+0x494>
 804bb9c:	b8 ff 0f 00 00       	mov    eax,0xfff
 804bba1:	89 c2                	mov    edx,eax
 804bba3:	8b 45 08             	mov    eax,DWORD PTR [ebp+0x8]
 804bba6:	89 50 20             	mov    DWORD PTR [eax+0x20],edx
 804bba9:	8b 45 f4             	mov    eax,DWORD PTR [ebp-0xc]
 804bbac:	83 ec 80             	sub    esp,0xffffff80
 804bbaf:	5b                   	pop    ebx
 804bbb0:	5e                   	pop    esi
 804bbb1:	5d                   	pop    ebp
 804bbb2:	c3                   	ret    

0804bbb3 <sys_trim>:
 804bbb3:	55                   	push   ebp
 804bbb4:	89 e5                	mov    ebp,esp
 804bbb6:	83 ec 38             	sub    esp,0x38
 804bbb9:	c7 45 f4 00 00 00 00 	mov    DWORD PTR [ebp-0xc],0x0
 804bbc0:	a1 60 0b 05 08       	mov    eax,ds:0x8050b60
 804bbc5:	85 c0                	test   eax,eax
 804bbc7:	75 07                	jne    804bbd0 <sys_trim+0x1d>
 804bbc9:	e8 0e e3 ff ff       	call   8049edc <init_mparams>
 804bbce:	85 c0                	test   eax,eax
 804bbd0:	83 7d 0c bf          	cmp    DWORD PTR [ebp+0xc],0xffffffbf
 804bbd4:	0f 87 fe 01 00 00    	ja     804bdd8 <sys_trim+0x225>
 804bbda:	8b 45 08             	mov    eax,DWORD PTR [ebp+0x8]
 804bbdd:	8b 40 18             	mov    eax,DWORD PTR [eax+0x18]
 804bbe0:	85 c0                	test   eax,eax
 804bbe2:	0f 84 f0 01 00 00    	je     804bdd8 <sys_trim+0x225>
 804bbe8:	83 45 0c 28          	add    DWORD PTR [ebp+0xc],0x28
 804bbec:	8b 45 08             	mov    eax,DWORD PTR [ebp+0x8]
 804bbef:	8b 40 0c             	mov    eax,DWORD PTR [eax+0xc]
 804bbf2:	3b 45 0c             	cmp    eax,DWORD PTR [ebp+0xc]
 804bbf5:	0f 86 af 01 00 00    	jbe    804bdaa <sys_trim+0x1f7>
 804bbfb:	a1 68 0b 05 08       	mov    eax,ds:0x8050b68
 804bc00:	89 45 ec             	mov    DWORD PTR [ebp-0x14],eax
 804bc03:	8b 45 08             	mov    eax,DWORD PTR [ebp+0x8]
 804bc06:	8b 40 0c             	mov    eax,DWORD PTR [eax+0xc]
 804bc09:	89 c2                	mov    edx,eax
 804bc0b:	2b 55 0c             	sub    edx,DWORD PTR [ebp+0xc]
 804bc0e:	8b 45 ec             	mov    eax,DWORD PTR [ebp-0x14]
 804bc11:	01 d0                	add    eax,edx
 804bc13:	83 e8 01             	sub    eax,0x1
 804bc16:	ba 00 00 00 00       	mov    edx,0x0
 804bc1b:	f7 75 ec             	div    DWORD PTR [ebp-0x14]
 804bc1e:	83 e8 01             	sub    eax,0x1
 804bc21:	0f af 45 ec          	imul   eax,DWORD PTR [ebp-0x14]
 804bc25:	89 45 f0             	mov    DWORD PTR [ebp-0x10],eax
 804bc28:	8b 45 08             	mov    eax,DWORD PTR [ebp+0x8]
 804bc2b:	8b 40 18             	mov    eax,DWORD PTR [eax+0x18]
 804bc2e:	89 44 24 04          	mov    DWORD PTR [esp+0x4],eax
 804bc32:	8b 45 08             	mov    eax,DWORD PTR [ebp+0x8]
 804bc35:	89 04 24             	mov    DWORD PTR [esp],eax
 804bc38:	e8 07 e2 ff ff       	call   8049e44 <segment_holding>
 804bc3d:	89 45 e8             	mov    DWORD PTR [ebp-0x18],eax
 804bc40:	8b 45 e8             	mov    eax,DWORD PTR [ebp-0x18]
 804bc43:	8b 40 0c             	mov    eax,DWORD PTR [eax+0xc]
 804bc46:	83 e0 08             	and    eax,0x8
 804bc49:	85 c0                	test   eax,eax
 804bc4b:	0f 85 07 01 00 00    	jne    804bd58 <sys_trim+0x1a5>
 804bc51:	8b 45 e8             	mov    eax,DWORD PTR [ebp-0x18]
 804bc54:	8b 40 0c             	mov    eax,DWORD PTR [eax+0xc]
 804bc57:	83 e0 01             	and    eax,0x1
 804bc5a:	85 c0                	test   eax,eax
 804bc5c:	0f 84 85 00 00 00    	je     804bce7 <sys_trim+0x134>
 804bc62:	8b 45 e8             	mov    eax,DWORD PTR [ebp-0x18]
 804bc65:	8b 40 04             	mov    eax,DWORD PTR [eax+0x4]
 804bc68:	3b 45 f0             	cmp    eax,DWORD PTR [ebp-0x10]
 804bc6b:	0f 82 e7 00 00 00    	jb     804bd58 <sys_trim+0x1a5>
 804bc71:	8b 45 e8             	mov    eax,DWORD PTR [ebp-0x18]
 804bc74:	89 44 24 04          	mov    DWORD PTR [esp+0x4],eax
 804bc78:	8b 45 08             	mov    eax,DWORD PTR [ebp+0x8]
 804bc7b:	89 04 24             	mov    DWORD PTR [esp],eax
 804bc7e:	e8 0c e2 ff ff       	call   8049e8f <has_segment_link>
 804bc83:	85 c0                	test   eax,eax
 804bc85:	0f 85 cd 00 00 00    	jne    804bd58 <sys_trim+0x1a5>
 804bc8b:	8b 45 e8             	mov    eax,DWORD PTR [ebp-0x18]
 804bc8e:	8b 40 04             	mov    eax,DWORD PTR [eax+0x4]
 804bc91:	2b 45 f0             	sub    eax,DWORD PTR [ebp-0x10]
 804bc94:	89 45 e4             	mov    DWORD PTR [ebp-0x1c],eax
 804bc97:	8b 45 e8             	mov    eax,DWORD PTR [ebp-0x18]
 804bc9a:	8b 50 04             	mov    edx,DWORD PTR [eax+0x4]
 804bc9d:	8b 45 e8             	mov    eax,DWORD PTR [ebp-0x18]
 804bca0:	8b 00                	mov    eax,DWORD PTR [eax]
 804bca2:	c7 44 24 0c 00 00 00 	mov    DWORD PTR [esp+0xc],0x0
 804bca9:	00 
 804bcaa:	8b 4d e4             	mov    ecx,DWORD PTR [ebp-0x1c]
 804bcad:	89 4c 24 08          	mov    DWORD PTR [esp+0x8],ecx
 804bcb1:	89 54 24 04          	mov    DWORD PTR [esp+0x4],edx
 804bcb5:	89 04 24             	mov    DWORD PTR [esp],eax
 804bcb8:	e8 73 ce ff ff       	call   8048b30 <mremap@plt>
 804bcbd:	83 f8 ff             	cmp    eax,0xffffffff
 804bcc0:	75 1d                	jne    804bcdf <sys_trim+0x12c>
 804bcc2:	8b 45 e8             	mov    eax,DWORD PTR [ebp-0x18]
 804bcc5:	8b 10                	mov    edx,DWORD PTR [eax]
 804bcc7:	8b 45 e4             	mov    eax,DWORD PTR [ebp-0x1c]
 804bcca:	01 c2                	add    edx,eax
 804bccc:	8b 45 f0             	mov    eax,DWORD PTR [ebp-0x10]
 804bccf:	89 44 24 04          	mov    DWORD PTR [esp+0x4],eax
 804bcd3:	89 14 24             	mov    DWORD PTR [esp],edx
 804bcd6:	e8 f5 cd ff ff       	call   8048ad0 <munmap@plt>
 804bcdb:	85 c0                	test   eax,eax
 804bcdd:	75 79                	jne    804bd58 <sys_trim+0x1a5>
 804bcdf:	8b 45 f0             	mov    eax,DWORD PTR [ebp-0x10]
 804bce2:	89 45 f4             	mov    DWORD PTR [ebp-0xc],eax
 804bce5:	eb 71                	jmp    804bd58 <sys_trim+0x1a5>
 804bce7:	81 7d f0 fe ff ff 7f 	cmp    DWORD PTR [ebp-0x10],0x7ffffffe
 804bcee:	76 0b                	jbe    804bcfb <sys_trim+0x148>
 804bcf0:	b8 00 00 00 80       	mov    eax,0x80000000
 804bcf5:	2b 45 ec             	sub    eax,DWORD PTR [ebp-0x14]
 804bcf8:	89 45 f0             	mov    DWORD PTR [ebp-0x10],eax
 804bcfb:	c7 04 24 00 00 00 00 	mov    DWORD PTR [esp],0x0
 804bd02:	e8 09 ce ff ff       	call   8048b10 <sbrk@plt>
 804bd07:	89 45 e0             	mov    DWORD PTR [ebp-0x20],eax
 804bd0a:	8b 45 e8             	mov    eax,DWORD PTR [ebp-0x18]
 804bd0d:	8b 10                	mov    edx,DWORD PTR [eax]
 804bd0f:	8b 45 e8             	mov    eax,DWORD PTR [ebp-0x18]
 804bd12:	8b 40 04             	mov    eax,DWORD PTR [eax+0x4]
 804bd15:	01 d0                	add    eax,edx
 804bd17:	3b 45 e0             	cmp    eax,DWORD PTR [ebp-0x20]
 804bd1a:	75 3c                	jne    804bd58 <sys_trim+0x1a5>
 804bd1c:	8b 45 f0             	mov    eax,DWORD PTR [ebp-0x10]
 804bd1f:	f7 d8                	neg    eax
 804bd21:	89 04 24             	mov    DWORD PTR [esp],eax
 804bd24:	e8 e7 cd ff ff       	call   8048b10 <sbrk@plt>
 804bd29:	89 45 dc             	mov    DWORD PTR [ebp-0x24],eax
 804bd2c:	c7 04 24 00 00 00 00 	mov    DWORD PTR [esp],0x0
 804bd33:	e8 d8 cd ff ff       	call   8048b10 <sbrk@plt>
 804bd38:	89 45 d8             	mov    DWORD PTR [ebp-0x28],eax
 804bd3b:	83 7d dc ff          	cmp    DWORD PTR [ebp-0x24],0xffffffff
 804bd3f:	74 17                	je     804bd58 <sys_trim+0x1a5>
 804bd41:	8b 45 d8             	mov    eax,DWORD PTR [ebp-0x28]
 804bd44:	3b 45 e0             	cmp    eax,DWORD PTR [ebp-0x20]
 804bd47:	73 0f                	jae    804bd58 <sys_trim+0x1a5>
 804bd49:	8b 55 e0             	mov    edx,DWORD PTR [ebp-0x20]
 804bd4c:	8b 45 d8             	mov    eax,DWORD PTR [ebp-0x28]
 804bd4f:	89 d1                	mov    ecx,edx
 804bd51:	29 c1                	sub    ecx,eax
 804bd53:	89 c8                	mov    eax,ecx
 804bd55:	89 45 f4             	mov    DWORD PTR [ebp-0xc],eax
 804bd58:	83 7d f4 00          	cmp    DWORD PTR [ebp-0xc],0x0
 804bd5c:	74 4c                	je     804bdaa <sys_trim+0x1f7>
 804bd5e:	8b 45 e8             	mov    eax,DWORD PTR [ebp-0x18]
 804bd61:	8b 40 04             	mov    eax,DWORD PTR [eax+0x4]
 804bd64:	89 c2                	mov    edx,eax
 804bd66:	2b 55 f4             	sub    edx,DWORD PTR [ebp-0xc]
 804bd69:	8b 45 e8             	mov    eax,DWORD PTR [ebp-0x18]
 804bd6c:	89 50 04             	mov    DWORD PTR [eax+0x4],edx
 804bd6f:	8b 45 08             	mov    eax,DWORD PTR [ebp+0x8]
 804bd72:	8b 80 b0 01 00 00    	mov    eax,DWORD PTR [eax+0x1b0]
 804bd78:	89 c2                	mov    edx,eax
 804bd7a:	2b 55 f4             	sub    edx,DWORD PTR [ebp-0xc]
 804bd7d:	8b 45 08             	mov    eax,DWORD PTR [ebp+0x8]
 804bd80:	89 90 b0 01 00 00    	mov    DWORD PTR [eax+0x1b0],edx
 804bd86:	8b 45 08             	mov    eax,DWORD PTR [ebp+0x8]
 804bd89:	8b 40 0c             	mov    eax,DWORD PTR [eax+0xc]
 804bd8c:	89 c2                	mov    edx,eax
 804bd8e:	2b 55 f4             	sub    edx,DWORD PTR [ebp-0xc]
 804bd91:	8b 45 08             	mov    eax,DWORD PTR [ebp+0x8]
 804bd94:	8b 40 18             	mov    eax,DWORD PTR [eax+0x18]
 804bd97:	89 54 24 08          	mov    DWORD PTR [esp+0x8],edx
 804bd9b:	89 44 24 04          	mov    DWORD PTR [esp+0x4],eax
 804bd9f:	8b 45 08             	mov    eax,DWORD PTR [ebp+0x8]
 804bda2:	89 04 24             	mov    DWORD PTR [esp],eax
 804bda5:	e8 1d e8 ff ff       	call   804a5c7 <init_top>
 804bdaa:	8b 45 08             	mov    eax,DWORD PTR [ebp+0x8]
 804bdad:	89 04 24             	mov    DWORD PTR [esp],eax
 804bdb0:	e8 58 f9 ff ff       	call   804b70d <release_unused_segments>
 804bdb5:	01 45 f4             	add    DWORD PTR [ebp-0xc],eax
 804bdb8:	83 7d f4 00          	cmp    DWORD PTR [ebp-0xc],0x0
 804bdbc:	75 1a                	jne    804bdd8 <sys_trim+0x225>
 804bdbe:	8b 45 08             	mov    eax,DWORD PTR [ebp+0x8]
 804bdc1:	8b 50 0c             	mov    edx,DWORD PTR [eax+0xc]
 804bdc4:	8b 45 08             	mov    eax,DWORD PTR [ebp+0x8]
 804bdc7:	8b 40 1c             	mov    eax,DWORD PTR [eax+0x1c]
 804bdca:	39 c2                	cmp    edx,eax
 804bdcc:	76 0a                	jbe    804bdd8 <sys_trim+0x225>
 804bdce:	8b 45 08             	mov    eax,DWORD PTR [ebp+0x8]
 804bdd1:	c7 40 1c ff ff ff ff 	mov    DWORD PTR [eax+0x1c],0xffffffff
 804bdd8:	83 7d f4 00          	cmp    DWORD PTR [ebp-0xc],0x0
 804bddc:	0f 95 c0             	setne  al
 804bddf:	0f b6 c0             	movzx  eax,al
 804bde2:	c9                   	leave  
 804bde3:	c3                   	ret    

0804bde4 <tmalloc_large>:
 804bde4:	55                   	push   ebp
 804bde5:	89 e5                	mov    ebp,esp
 804bde7:	56                   	push   esi
 804bde8:	53                   	push   ebx
 804bde9:	81 ec 90 00 00 00    	sub    esp,0x90
 804bdef:	c7 45 f4 00 00 00 00 	mov    DWORD PTR [ebp-0xc],0x0
 804bdf6:	8b 45 0c             	mov    eax,DWORD PTR [ebp+0xc]
 804bdf9:	f7 d8                	neg    eax
 804bdfb:	89 45 f0             	mov    DWORD PTR [ebp-0x10],eax
 804bdfe:	8b 45 0c             	mov    eax,DWORD PTR [ebp+0xc]
 804be01:	c1 e8 08             	shr    eax,0x8
 804be04:	89 45 c0             	mov    DWORD PTR [ebp-0x40],eax
 804be07:	83 7d c0 00          	cmp    DWORD PTR [ebp-0x40],0x0
 804be0b:	75 09                	jne    804be16 <tmalloc_large+0x32>
 804be0d:	c7 45 e8 00 00 00 00 	mov    DWORD PTR [ebp-0x18],0x0
 804be14:	eb 38                	jmp    804be4e <tmalloc_large+0x6a>
 804be16:	81 7d c0 ff ff 00 00 	cmp    DWORD PTR [ebp-0x40],0xffff
 804be1d:	76 09                	jbe    804be28 <tmalloc_large+0x44>
 804be1f:	c7 45 e8 1f 00 00 00 	mov    DWORD PTR [ebp-0x18],0x1f
 804be26:	eb 26                	jmp    804be4e <tmalloc_large+0x6a>
 804be28:	0f bd 5d c0          	bsr    ebx,DWORD PTR [ebp-0x40]
 804be2c:	89 5d bc             	mov    DWORD PTR [ebp-0x44],ebx
 804be2f:	8b 45 bc             	mov    eax,DWORD PTR [ebp-0x44]
 804be32:	8d 1c 00             	lea    ebx,[eax+eax*1]
 804be35:	8b 45 bc             	mov    eax,DWORD PTR [ebp-0x44]
 804be38:	83 c0 07             	add    eax,0x7
 804be3b:	8b 55 0c             	mov    edx,DWORD PTR [ebp+0xc]
 804be3e:	89 d6                	mov    esi,edx
 804be40:	89 c1                	mov    ecx,eax
 804be42:	d3 ee                	shr    esi,cl
 804be44:	89 f0                	mov    eax,esi
 804be46:	83 e0 01             	and    eax,0x1
 804be49:	01 d8                	add    eax,ebx
 804be4b:	89 45 e8             	mov    DWORD PTR [ebp-0x18],eax
 804be4e:	8b 45 08             	mov    eax,DWORD PTR [ebp+0x8]
 804be51:	8b 55 e8             	mov    edx,DWORD PTR [ebp-0x18]
 804be54:	83 c2 4c             	add    edx,0x4c
 804be57:	8b 04 90             	mov    eax,DWORD PTR [eax+edx*4]
 804be5a:	89 45 ec             	mov    DWORD PTR [ebp-0x14],eax
 804be5d:	83 7d ec 00          	cmp    DWORD PTR [ebp-0x14],0x0
 804be61:	0f 84 9e 00 00 00    	je     804bf05 <tmalloc_large+0x121>
 804be67:	83 7d e8 1f          	cmp    DWORD PTR [ebp-0x18],0x1f
 804be6b:	74 10                	je     804be7d <tmalloc_large+0x99>
 804be6d:	8b 45 e8             	mov    eax,DWORD PTR [ebp-0x18]
 804be70:	89 c2                	mov    edx,eax
 804be72:	d1 ea                	shr    edx,1
 804be74:	b8 19 00 00 00       	mov    eax,0x19
 804be79:	29 d0                	sub    eax,edx
 804be7b:	eb 05                	jmp    804be82 <tmalloc_large+0x9e>
 804be7d:	b8 00 00 00 00       	mov    eax,0x0
 804be82:	8b 55 0c             	mov    edx,DWORD PTR [ebp+0xc]
 804be85:	89 d3                	mov    ebx,edx
 804be87:	89 c1                	mov    ecx,eax
 804be89:	d3 e3                	shl    ebx,cl
 804be8b:	89 d8                	mov    eax,ebx
 804be8d:	89 45 e4             	mov    DWORD PTR [ebp-0x1c],eax
 804be90:	c7 45 e0 00 00 00 00 	mov    DWORD PTR [ebp-0x20],0x0
 804be97:	8b 45 ec             	mov    eax,DWORD PTR [ebp-0x14]
 804be9a:	8b 40 04             	mov    eax,DWORD PTR [eax+0x4]
 804be9d:	83 e0 f8             	and    eax,0xfffffff8
 804bea0:	2b 45 0c             	sub    eax,DWORD PTR [ebp+0xc]
 804bea3:	89 45 b8             	mov    DWORD PTR [ebp-0x48],eax
 804bea6:	8b 45 b8             	mov    eax,DWORD PTR [ebp-0x48]
 804bea9:	3b 45 f0             	cmp    eax,DWORD PTR [ebp-0x10]
 804beac:	73 12                	jae    804bec0 <tmalloc_large+0xdc>
 804beae:	8b 45 ec             	mov    eax,DWORD PTR [ebp-0x14]
 804beb1:	89 45 f4             	mov    DWORD PTR [ebp-0xc],eax
 804beb4:	8b 45 b8             	mov    eax,DWORD PTR [ebp-0x48]
 804beb7:	89 45 f0             	mov    DWORD PTR [ebp-0x10],eax
 804beba:	83 7d f0 00          	cmp    DWORD PTR [ebp-0x10],0x0
 804bebe:	74 44                	je     804bf04 <tmalloc_large+0x120>
 804bec0:	8b 45 ec             	mov    eax,DWORD PTR [ebp-0x14]
 804bec3:	8b 40 14             	mov    eax,DWORD PTR [eax+0x14]
 804bec6:	89 45 b4             	mov    DWORD PTR [ebp-0x4c],eax
 804bec9:	8b 45 e4             	mov    eax,DWORD PTR [ebp-0x1c]
 804becc:	89 c2                	mov    edx,eax
 804bece:	c1 ea 1f             	shr    edx,0x1f
 804bed1:	8b 45 ec             	mov    eax,DWORD PTR [ebp-0x14]
 804bed4:	83 c2 04             	add    edx,0x4
 804bed7:	8b 04 90             	mov    eax,DWORD PTR [eax+edx*4]
 804beda:	89 45 ec             	mov    DWORD PTR [ebp-0x14],eax
 804bedd:	83 7d b4 00          	cmp    DWORD PTR [ebp-0x4c],0x0
 804bee1:	74 0e                	je     804bef1 <tmalloc_large+0x10d>
 804bee3:	8b 45 b4             	mov    eax,DWORD PTR [ebp-0x4c]
 804bee6:	3b 45 ec             	cmp    eax,DWORD PTR [ebp-0x14]
 804bee9:	74 06                	je     804bef1 <tmalloc_large+0x10d>
 804beeb:	8b 45 b4             	mov    eax,DWORD PTR [ebp-0x4c]
 804beee:	89 45 e0             	mov    DWORD PTR [ebp-0x20],eax
 804bef1:	83 7d ec 00          	cmp    DWORD PTR [ebp-0x14],0x0
 804bef5:	75 08                	jne    804beff <tmalloc_large+0x11b>
 804bef7:	8b 45 e0             	mov    eax,DWORD PTR [ebp-0x20]
 804befa:	89 45 ec             	mov    DWORD PTR [ebp-0x14],eax
 804befd:	eb 06                	jmp    804bf05 <tmalloc_large+0x121>
 804beff:	d1 65 e4             	shl    DWORD PTR [ebp-0x1c],1
 804bf02:	eb 93                	jmp    804be97 <tmalloc_large+0xb3>
 804bf04:	90                   	nop
 804bf05:	83 7d ec 00          	cmp    DWORD PTR [ebp-0x14],0x0
 804bf09:	0f 85 ad 00 00 00    	jne    804bfbc <tmalloc_large+0x1d8>
 804bf0f:	83 7d f4 00          	cmp    DWORD PTR [ebp-0xc],0x0
 804bf13:	0f 85 a3 00 00 00    	jne    804bfbc <tmalloc_large+0x1d8>
 804bf19:	8b 45 e8             	mov    eax,DWORD PTR [ebp-0x18]
 804bf1c:	ba 01 00 00 00       	mov    edx,0x1
 804bf21:	89 d3                	mov    ebx,edx
 804bf23:	89 c1                	mov    ecx,eax
 804bf25:	d3 e3                	shl    ebx,cl
 804bf27:	89 d8                	mov    eax,ebx
 804bf29:	8d 1c 00             	lea    ebx,[eax+eax*1]
 804bf2c:	8b 45 e8             	mov    eax,DWORD PTR [ebp-0x18]
 804bf2f:	ba 01 00 00 00       	mov    edx,0x1
 804bf34:	89 d6                	mov    esi,edx
 804bf36:	89 c1                	mov    ecx,eax
 804bf38:	d3 e6                	shl    esi,cl
 804bf3a:	89 f0                	mov    eax,esi
 804bf3c:	01 c0                	add    eax,eax
 804bf3e:	f7 d8                	neg    eax
 804bf40:	89 da                	mov    edx,ebx
 804bf42:	09 c2                	or     edx,eax
 804bf44:	8b 45 08             	mov    eax,DWORD PTR [ebp+0x8]
 804bf47:	8b 40 04             	mov    eax,DWORD PTR [eax+0x4]
 804bf4a:	21 d0                	and    eax,edx
 804bf4c:	89 45 b0             	mov    DWORD PTR [ebp-0x50],eax
 804bf4f:	83 7d b0 00          	cmp    DWORD PTR [ebp-0x50],0x0
 804bf53:	74 67                	je     804bfbc <tmalloc_large+0x1d8>
 804bf55:	8b 45 b0             	mov    eax,DWORD PTR [ebp-0x50]
 804bf58:	f7 d8                	neg    eax
 804bf5a:	23 45 b0             	and    eax,DWORD PTR [ebp-0x50]
 804bf5d:	89 45 ac             	mov    DWORD PTR [ebp-0x54],eax
 804bf60:	0f bc 5d ac          	bsf    ebx,DWORD PTR [ebp-0x54]
 804bf64:	89 5d a8             	mov    DWORD PTR [ebp-0x58],ebx
 804bf67:	8b 45 a8             	mov    eax,DWORD PTR [ebp-0x58]
 804bf6a:	89 45 a4             	mov    DWORD PTR [ebp-0x5c],eax
 804bf6d:	8b 45 08             	mov    eax,DWORD PTR [ebp+0x8]
 804bf70:	8b 55 a4             	mov    edx,DWORD PTR [ebp-0x5c]
 804bf73:	83 c2 4c             	add    edx,0x4c
 804bf76:	8b 04 90             	mov    eax,DWORD PTR [eax+edx*4]
 804bf79:	89 45 ec             	mov    DWORD PTR [ebp-0x14],eax
 804bf7c:	eb 3e                	jmp    804bfbc <tmalloc_large+0x1d8>
 804bf7e:	8b 45 ec             	mov    eax,DWORD PTR [ebp-0x14]
 804bf81:	8b 40 04             	mov    eax,DWORD PTR [eax+0x4]
 804bf84:	83 e0 f8             	and    eax,0xfffffff8
 804bf87:	2b 45 0c             	sub    eax,DWORD PTR [ebp+0xc]
 804bf8a:	89 45 a0             	mov    DWORD PTR [ebp-0x60],eax
 804bf8d:	8b 45 a0             	mov    eax,DWORD PTR [ebp-0x60]
 804bf90:	3b 45 f0             	cmp    eax,DWORD PTR [ebp-0x10]
 804bf93:	73 0c                	jae    804bfa1 <tmalloc_large+0x1bd>
 804bf95:	8b 45 a0             	mov    eax,DWORD PTR [ebp-0x60]
 804bf98:	89 45 f0             	mov    DWORD PTR [ebp-0x10],eax
 804bf9b:	8b 45 ec             	mov    eax,DWORD PTR [ebp-0x14]
 804bf9e:	89 45 f4             	mov    DWORD PTR [ebp-0xc],eax
 804bfa1:	8b 45 ec             	mov    eax,DWORD PTR [ebp-0x14]
 804bfa4:	8b 40 10             	mov    eax,DWORD PTR [eax+0x10]
 804bfa7:	85 c0                	test   eax,eax
 804bfa9:	74 08                	je     804bfb3 <tmalloc_large+0x1cf>
 804bfab:	8b 45 ec             	mov    eax,DWORD PTR [ebp-0x14]
 804bfae:	8b 40 10             	mov    eax,DWORD PTR [eax+0x10]
 804bfb1:	eb 06                	jmp    804bfb9 <tmalloc_large+0x1d5>
 804bfb3:	8b 45 ec             	mov    eax,DWORD PTR [ebp-0x14]
 804bfb6:	8b 40 14             	mov    eax,DWORD PTR [eax+0x14]
 804bfb9:	89 45 ec             	mov    DWORD PTR [ebp-0x14],eax
 804bfbc:	83 7d ec 00          	cmp    DWORD PTR [ebp-0x14],0x0
 804bfc0:	75 bc                	jne    804bf7e <tmalloc_large+0x19a>
 804bfc2:	83 7d f4 00          	cmp    DWORD PTR [ebp-0xc],0x0
 804bfc6:	0f 84 df 04 00 00    	je     804c4ab <tmalloc_large+0x6c7>
 804bfcc:	8b 45 08             	mov    eax,DWORD PTR [ebp+0x8]
 804bfcf:	8b 40 08             	mov    eax,DWORD PTR [eax+0x8]
 804bfd2:	2b 45 0c             	sub    eax,DWORD PTR [ebp+0xc]
 804bfd5:	3b 45 f0             	cmp    eax,DWORD PTR [ebp-0x10]
 804bfd8:	0f 86 cd 04 00 00    	jbe    804c4ab <tmalloc_large+0x6c7>
 804bfde:	8b 45 0c             	mov    eax,DWORD PTR [ebp+0xc]
 804bfe1:	8b 55 f4             	mov    edx,DWORD PTR [ebp-0xc]
 804bfe4:	01 d0                	add    eax,edx
 804bfe6:	89 45 9c             	mov    DWORD PTR [ebp-0x64],eax
 804bfe9:	8b 45 f4             	mov    eax,DWORD PTR [ebp-0xc]
 804bfec:	8b 40 18             	mov    eax,DWORD PTR [eax+0x18]
 804bfef:	89 45 98             	mov    DWORD PTR [ebp-0x68],eax
 804bff2:	8b 45 f4             	mov    eax,DWORD PTR [ebp-0xc]
 804bff5:	8b 40 0c             	mov    eax,DWORD PTR [eax+0xc]
 804bff8:	3b 45 f4             	cmp    eax,DWORD PTR [ebp-0xc]
 804bffb:	74 26                	je     804c023 <tmalloc_large+0x23f>
 804bffd:	8b 45 f4             	mov    eax,DWORD PTR [ebp-0xc]
 804c000:	8b 40 08             	mov    eax,DWORD PTR [eax+0x8]
 804c003:	89 45 94             	mov    DWORD PTR [ebp-0x6c],eax
 804c006:	8b 45 f4             	mov    eax,DWORD PTR [ebp-0xc]
 804c009:	8b 40 0c             	mov    eax,DWORD PTR [eax+0xc]
 804c00c:	89 45 dc             	mov    DWORD PTR [ebp-0x24],eax
 804c00f:	8b 45 94             	mov    eax,DWORD PTR [ebp-0x6c]
 804c012:	8b 55 dc             	mov    edx,DWORD PTR [ebp-0x24]
 804c015:	89 50 0c             	mov    DWORD PTR [eax+0xc],edx
 804c018:	8b 45 dc             	mov    eax,DWORD PTR [ebp-0x24]
 804c01b:	8b 55 94             	mov    edx,DWORD PTR [ebp-0x6c]
 804c01e:	89 50 08             	mov    DWORD PTR [eax+0x8],edx
 804c021:	eb 6b                	jmp    804c08e <tmalloc_large+0x2aa>
 804c023:	8b 45 f4             	mov    eax,DWORD PTR [ebp-0xc]
 804c026:	83 c0 14             	add    eax,0x14
 804c029:	89 45 d8             	mov    DWORD PTR [ebp-0x28],eax
 804c02c:	8b 45 d8             	mov    eax,DWORD PTR [ebp-0x28]
 804c02f:	8b 00                	mov    eax,DWORD PTR [eax]
 804c031:	89 45 dc             	mov    DWORD PTR [ebp-0x24],eax
 804c034:	83 7d dc 00          	cmp    DWORD PTR [ebp-0x24],0x0
 804c038:	75 27                	jne    804c061 <tmalloc_large+0x27d>
 804c03a:	8b 45 f4             	mov    eax,DWORD PTR [ebp-0xc]
 804c03d:	83 c0 10             	add    eax,0x10
 804c040:	89 45 d8             	mov    DWORD PTR [ebp-0x28],eax
 804c043:	8b 45 d8             	mov    eax,DWORD PTR [ebp-0x28]
 804c046:	8b 00                	mov    eax,DWORD PTR [eax]
 804c048:	89 45 dc             	mov    DWORD PTR [ebp-0x24],eax
 804c04b:	83 7d dc 00          	cmp    DWORD PTR [ebp-0x24],0x0
 804c04f:	74 3d                	je     804c08e <tmalloc_large+0x2aa>
 804c051:	eb 0e                	jmp    804c061 <tmalloc_large+0x27d>
 804c053:	8b 45 d4             	mov    eax,DWORD PTR [ebp-0x2c]
 804c056:	89 45 d8             	mov    DWORD PTR [ebp-0x28],eax
 804c059:	8b 45 d8             	mov    eax,DWORD PTR [ebp-0x28]
 804c05c:	8b 00                	mov    eax,DWORD PTR [eax]
 804c05e:	89 45 dc             	mov    DWORD PTR [ebp-0x24],eax
 804c061:	8b 45 dc             	mov    eax,DWORD PTR [ebp-0x24]
 804c064:	83 c0 14             	add    eax,0x14
 804c067:	89 45 d4             	mov    DWORD PTR [ebp-0x2c],eax
 804c06a:	8b 45 d4             	mov    eax,DWORD PTR [ebp-0x2c]
 804c06d:	8b 00                	mov    eax,DWORD PTR [eax]
 804c06f:	85 c0                	test   eax,eax
 804c071:	75 e0                	jne    804c053 <tmalloc_large+0x26f>
 804c073:	8b 45 dc             	mov    eax,DWORD PTR [ebp-0x24]
 804c076:	83 c0 10             	add    eax,0x10
 804c079:	89 45 d4             	mov    DWORD PTR [ebp-0x2c],eax
 804c07c:	8b 45 d4             	mov    eax,DWORD PTR [ebp-0x2c]
 804c07f:	8b 00                	mov    eax,DWORD PTR [eax]
 804c081:	85 c0                	test   eax,eax
 804c083:	75 ce                	jne    804c053 <tmalloc_large+0x26f>
 804c085:	8b 45 d8             	mov    eax,DWORD PTR [ebp-0x28]
 804c088:	c7 00 00 00 00 00    	mov    DWORD PTR [eax],0x0
 804c08e:	83 7d 98 00          	cmp    DWORD PTR [ebp-0x68],0x0
 804c092:	0f 84 c8 00 00 00    	je     804c160 <tmalloc_large+0x37c>
 804c098:	8b 45 f4             	mov    eax,DWORD PTR [ebp-0xc]
 804c09b:	8b 40 1c             	mov    eax,DWORD PTR [eax+0x1c]
 804c09e:	83 c0 4c             	add    eax,0x4c
 804c0a1:	8d 14 85 00 00 00 00 	lea    edx,[eax*4+0x0]
 804c0a8:	8b 45 08             	mov    eax,DWORD PTR [ebp+0x8]
 804c0ab:	01 d0                	add    eax,edx
 804c0ad:	89 45 90             	mov    DWORD PTR [ebp-0x70],eax
 804c0b0:	8b 45 90             	mov    eax,DWORD PTR [ebp-0x70]
 804c0b3:	8b 00                	mov    eax,DWORD PTR [eax]
 804c0b5:	3b 45 f4             	cmp    eax,DWORD PTR [ebp-0xc]
 804c0b8:	75 36                	jne    804c0f0 <tmalloc_large+0x30c>
 804c0ba:	8b 45 90             	mov    eax,DWORD PTR [ebp-0x70]
 804c0bd:	8b 55 dc             	mov    edx,DWORD PTR [ebp-0x24]
 804c0c0:	89 10                	mov    DWORD PTR [eax],edx
 804c0c2:	8b 45 90             	mov    eax,DWORD PTR [ebp-0x70]
 804c0c5:	8b 00                	mov    eax,DWORD PTR [eax]
 804c0c7:	85 c0                	test   eax,eax
 804c0c9:	75 44                	jne    804c10f <tmalloc_large+0x32b>
 804c0cb:	8b 45 08             	mov    eax,DWORD PTR [ebp+0x8]
 804c0ce:	8b 50 04             	mov    edx,DWORD PTR [eax+0x4]
 804c0d1:	8b 45 f4             	mov    eax,DWORD PTR [ebp-0xc]
 804c0d4:	8b 40 1c             	mov    eax,DWORD PTR [eax+0x1c]
 804c0d7:	bb 01 00 00 00       	mov    ebx,0x1
 804c0dc:	89 de                	mov    esi,ebx
 804c0de:	89 c1                	mov    ecx,eax
 804c0e0:	d3 e6                	shl    esi,cl
 804c0e2:	89 f0                	mov    eax,esi
 804c0e4:	f7 d0                	not    eax
 804c0e6:	21 c2                	and    edx,eax
 804c0e8:	8b 45 08             	mov    eax,DWORD PTR [ebp+0x8]
 804c0eb:	89 50 04             	mov    DWORD PTR [eax+0x4],edx
 804c0ee:	eb 1f                	jmp    804c10f <tmalloc_large+0x32b>
 804c0f0:	8b 45 98             	mov    eax,DWORD PTR [ebp-0x68]
 804c0f3:	8b 40 10             	mov    eax,DWORD PTR [eax+0x10]
 804c0f6:	3b 45 f4             	cmp    eax,DWORD PTR [ebp-0xc]
 804c0f9:	75 0b                	jne    804c106 <tmalloc_large+0x322>
 804c0fb:	8b 45 98             	mov    eax,DWORD PTR [ebp-0x68]
 804c0fe:	8b 55 dc             	mov    edx,DWORD PTR [ebp-0x24]
 804c101:	89 50 10             	mov    DWORD PTR [eax+0x10],edx
 804c104:	eb 09                	jmp    804c10f <tmalloc_large+0x32b>
 804c106:	8b 45 98             	mov    eax,DWORD PTR [ebp-0x68]
 804c109:	8b 55 dc             	mov    edx,DWORD PTR [ebp-0x24]
 804c10c:	89 50 14             	mov    DWORD PTR [eax+0x14],edx
 804c10f:	83 7d dc 00          	cmp    DWORD PTR [ebp-0x24],0x0
 804c113:	74 4b                	je     804c160 <tmalloc_large+0x37c>
 804c115:	8b 45 dc             	mov    eax,DWORD PTR [ebp-0x24]
 804c118:	8b 55 98             	mov    edx,DWORD PTR [ebp-0x68]
 804c11b:	89 50 18             	mov    DWORD PTR [eax+0x18],edx
 804c11e:	8b 45 f4             	mov    eax,DWORD PTR [ebp-0xc]
 804c121:	8b 40 10             	mov    eax,DWORD PTR [eax+0x10]
 804c124:	89 45 8c             	mov    DWORD PTR [ebp-0x74],eax
 804c127:	83 7d 8c 00          	cmp    DWORD PTR [ebp-0x74],0x0
 804c12b:	74 12                	je     804c13f <tmalloc_large+0x35b>
 804c12d:	8b 45 dc             	mov    eax,DWORD PTR [ebp-0x24]
 804c130:	8b 55 8c             	mov    edx,DWORD PTR [ebp-0x74]
 804c133:	89 50 10             	mov    DWORD PTR [eax+0x10],edx
 804c136:	8b 45 8c             	mov    eax,DWORD PTR [ebp-0x74]
 804c139:	8b 55 dc             	mov    edx,DWORD PTR [ebp-0x24]
 804c13c:	89 50 18             	mov    DWORD PTR [eax+0x18],edx
 804c13f:	8b 45 f4             	mov    eax,DWORD PTR [ebp-0xc]
 804c142:	8b 40 14             	mov    eax,DWORD PTR [eax+0x14]
 804c145:	89 45 88             	mov    DWORD PTR [ebp-0x78],eax
 804c148:	83 7d 88 00          	cmp    DWORD PTR [ebp-0x78],0x0
 804c14c:	74 12                	je     804c160 <tmalloc_large+0x37c>
 804c14e:	8b 45 dc             	mov    eax,DWORD PTR [ebp-0x24]
 804c151:	8b 55 88             	mov    edx,DWORD PTR [ebp-0x78]
 804c154:	89 50 14             	mov    DWORD PTR [eax+0x14],edx
 804c157:	8b 45 88             	mov    eax,DWORD PTR [ebp-0x78]
 804c15a:	8b 55 dc             	mov    edx,DWORD PTR [ebp-0x24]
 804c15d:	89 50 18             	mov    DWORD PTR [eax+0x18],edx
 804c160:	83 7d f0 0f          	cmp    DWORD PTR [ebp-0x10],0xf
 804c164:	77 3b                	ja     804c1a1 <tmalloc_large+0x3bd>
 804c166:	8b 45 0c             	mov    eax,DWORD PTR [ebp+0xc]
 804c169:	8b 55 f0             	mov    edx,DWORD PTR [ebp-0x10]
 804c16c:	01 d0                	add    eax,edx
 804c16e:	89 c2                	mov    edx,eax
 804c170:	83 ca 03             	or     edx,0x3
 804c173:	8b 45 f4             	mov    eax,DWORD PTR [ebp-0xc]
 804c176:	89 50 04             	mov    DWORD PTR [eax+0x4],edx
 804c179:	8b 45 0c             	mov    eax,DWORD PTR [ebp+0xc]
 804c17c:	8b 55 f0             	mov    edx,DWORD PTR [ebp-0x10]
 804c17f:	01 c2                	add    edx,eax
 804c181:	8b 45 f4             	mov    eax,DWORD PTR [ebp-0xc]
 804c184:	01 d0                	add    eax,edx
 804c186:	8b 55 0c             	mov    edx,DWORD PTR [ebp+0xc]
 804c189:	8b 4d f0             	mov    ecx,DWORD PTR [ebp-0x10]
 804c18c:	01 d1                	add    ecx,edx
 804c18e:	8b 55 f4             	mov    edx,DWORD PTR [ebp-0xc]
 804c191:	01 ca                	add    edx,ecx
 804c193:	8b 52 04             	mov    edx,DWORD PTR [edx+0x4]
 804c196:	83 ca 01             	or     edx,0x1
 804c199:	89 50 04             	mov    DWORD PTR [eax+0x4],edx
 804c19c:	e9 02 03 00 00       	jmp    804c4a3 <tmalloc_large+0x6bf>
 804c1a1:	8b 45 0c             	mov    eax,DWORD PTR [ebp+0xc]
 804c1a4:	89 c2                	mov    edx,eax
 804c1a6:	83 ca 03             	or     edx,0x3
 804c1a9:	8b 45 f4             	mov    eax,DWORD PTR [ebp-0xc]
 804c1ac:	89 50 04             	mov    DWORD PTR [eax+0x4],edx
 804c1af:	8b 45 f0             	mov    eax,DWORD PTR [ebp-0x10]
 804c1b2:	89 c2                	mov    edx,eax
 804c1b4:	83 ca 01             	or     edx,0x1
 804c1b7:	8b 45 9c             	mov    eax,DWORD PTR [ebp-0x64]
 804c1ba:	89 50 04             	mov    DWORD PTR [eax+0x4],edx
 804c1bd:	8b 45 f0             	mov    eax,DWORD PTR [ebp-0x10]
 804c1c0:	8b 55 9c             	mov    edx,DWORD PTR [ebp-0x64]
 804c1c3:	01 c2                	add    edx,eax
 804c1c5:	8b 45 f0             	mov    eax,DWORD PTR [ebp-0x10]
 804c1c8:	89 02                	mov    DWORD PTR [edx],eax
 804c1ca:	8b 45 f0             	mov    eax,DWORD PTR [ebp-0x10]
 804c1cd:	c1 e8 03             	shr    eax,0x3
 804c1d0:	83 f8 1f             	cmp    eax,0x1f
 804c1d3:	0f 87 94 00 00 00    	ja     804c26d <tmalloc_large+0x489>
 804c1d9:	8b 45 f0             	mov    eax,DWORD PTR [ebp-0x10]
 804c1dc:	c1 e8 03             	shr    eax,0x3
 804c1df:	89 45 84             	mov    DWORD PTR [ebp-0x7c],eax
 804c1e2:	8b 45 84             	mov    eax,DWORD PTR [ebp-0x7c]
 804c1e5:	01 c0                	add    eax,eax
 804c1e7:	83 c0 08             	add    eax,0x8
 804c1ea:	8d 14 85 00 00 00 00 	lea    edx,[eax*4+0x0]
 804c1f1:	8b 45 08             	mov    eax,DWORD PTR [ebp+0x8]
 804c1f4:	01 d0                	add    eax,edx
 804c1f6:	83 c0 08             	add    eax,0x8
 804c1f9:	89 45 80             	mov    DWORD PTR [ebp-0x80],eax
 804c1fc:	8b 45 80             	mov    eax,DWORD PTR [ebp-0x80]
 804c1ff:	89 45 d0             	mov    DWORD PTR [ebp-0x30],eax
 804c202:	8b 45 08             	mov    eax,DWORD PTR [ebp+0x8]
 804c205:	8b 10                	mov    edx,DWORD PTR [eax]
 804c207:	8b 45 84             	mov    eax,DWORD PTR [ebp-0x7c]
 804c20a:	bb 01 00 00 00       	mov    ebx,0x1
 804c20f:	89 de                	mov    esi,ebx
 804c211:	89 c1                	mov    ecx,eax
 804c213:	d3 e6                	shl    esi,cl
 804c215:	89 f0                	mov    eax,esi
 804c217:	21 d0                	and    eax,edx
 804c219:	85 c0                	test   eax,eax
 804c21b:	75 1e                	jne    804c23b <tmalloc_large+0x457>
 804c21d:	8b 45 08             	mov    eax,DWORD PTR [ebp+0x8]
 804c220:	8b 10                	mov    edx,DWORD PTR [eax]
 804c222:	8b 45 84             	mov    eax,DWORD PTR [ebp-0x7c]
 804c225:	bb 01 00 00 00       	mov    ebx,0x1
 804c22a:	89 de                	mov    esi,ebx
 804c22c:	89 c1                	mov    ecx,eax
 804c22e:	d3 e6                	shl    esi,cl
 804c230:	89 f0                	mov    eax,esi
 804c232:	09 c2                	or     edx,eax
 804c234:	8b 45 08             	mov    eax,DWORD PTR [ebp+0x8]
 804c237:	89 10                	mov    DWORD PTR [eax],edx
 804c239:	eb 09                	jmp    804c244 <tmalloc_large+0x460>
 804c23b:	8b 45 80             	mov    eax,DWORD PTR [ebp-0x80]
 804c23e:	8b 40 08             	mov    eax,DWORD PTR [eax+0x8]
 804c241:	89 45 d0             	mov    DWORD PTR [ebp-0x30],eax
 804c244:	8b 45 80             	mov    eax,DWORD PTR [ebp-0x80]
 804c247:	8b 55 9c             	mov    edx,DWORD PTR [ebp-0x64]
 804c24a:	89 50 08             	mov    DWORD PTR [eax+0x8],edx
 804c24d:	8b 45 d0             	mov    eax,DWORD PTR [ebp-0x30]
 804c250:	8b 55 9c             	mov    edx,DWORD PTR [ebp-0x64]
 804c253:	89 50 0c             	mov    DWORD PTR [eax+0xc],edx
 804c256:	8b 45 9c             	mov    eax,DWORD PTR [ebp-0x64]
 804c259:	8b 55 d0             	mov    edx,DWORD PTR [ebp-0x30]
 804c25c:	89 50 08             	mov    DWORD PTR [eax+0x8],edx
 804c25f:	8b 45 9c             	mov    eax,DWORD PTR [ebp-0x64]
 804c262:	8b 55 80             	mov    edx,DWORD PTR [ebp-0x80]
 804c265:	89 50 0c             	mov    DWORD PTR [eax+0xc],edx
 804c268:	e9 36 02 00 00       	jmp    804c4a3 <tmalloc_large+0x6bf>
 804c26d:	8b 45 9c             	mov    eax,DWORD PTR [ebp-0x64]
 804c270:	89 85 7c ff ff ff    	mov    DWORD PTR [ebp-0x84],eax
 804c276:	8b 45 f0             	mov    eax,DWORD PTR [ebp-0x10]
 804c279:	c1 e8 08             	shr    eax,0x8
 804c27c:	89 85 78 ff ff ff    	mov    DWORD PTR [ebp-0x88],eax
 804c282:	83 bd 78 ff ff ff 00 	cmp    DWORD PTR [ebp-0x88],0x0
 804c289:	75 09                	jne    804c294 <tmalloc_large+0x4b0>
 804c28b:	c7 45 cc 00 00 00 00 	mov    DWORD PTR [ebp-0x34],0x0
 804c292:	eb 47                	jmp    804c2db <tmalloc_large+0x4f7>
 804c294:	81 bd 78 ff ff ff ff 	cmp    DWORD PTR [ebp-0x88],0xffff
 804c29b:	ff 00 00 
 804c29e:	76 09                	jbe    804c2a9 <tmalloc_large+0x4c5>
 804c2a0:	c7 45 cc 1f 00 00 00 	mov    DWORD PTR [ebp-0x34],0x1f
 804c2a7:	eb 32                	jmp    804c2db <tmalloc_large+0x4f7>
 804c2a9:	0f bd 9d 78 ff ff ff 	bsr    ebx,DWORD PTR [ebp-0x88]
 804c2b0:	89 9d 74 ff ff ff    	mov    DWORD PTR [ebp-0x8c],ebx
 804c2b6:	8b 85 74 ff ff ff    	mov    eax,DWORD PTR [ebp-0x8c]
 804c2bc:	8d 1c 00             	lea    ebx,[eax+eax*1]
 804c2bf:	8b 85 74 ff ff ff    	mov    eax,DWORD PTR [ebp-0x8c]
 804c2c5:	83 c0 07             	add    eax,0x7
 804c2c8:	8b 55 f0             	mov    edx,DWORD PTR [ebp-0x10]
 804c2cb:	89 d6                	mov    esi,edx
 804c2cd:	89 c1                	mov    ecx,eax
 804c2cf:	d3 ee                	shr    esi,cl
 804c2d1:	89 f0                	mov    eax,esi
 804c2d3:	83 e0 01             	and    eax,0x1
 804c2d6:	01 d8                	add    eax,ebx
 804c2d8:	89 45 cc             	mov    DWORD PTR [ebp-0x34],eax
 804c2db:	8b 45 cc             	mov    eax,DWORD PTR [ebp-0x34]
 804c2de:	83 c0 4c             	add    eax,0x4c
 804c2e1:	8d 14 85 00 00 00 00 	lea    edx,[eax*4+0x0]
 804c2e8:	8b 45 08             	mov    eax,DWORD PTR [ebp+0x8]
 804c2eb:	01 d0                	add    eax,edx
 804c2ed:	89 85 70 ff ff ff    	mov    DWORD PTR [ebp-0x90],eax
 804c2f3:	8b 85 7c ff ff ff    	mov    eax,DWORD PTR [ebp-0x84]
 804c2f9:	8b 55 cc             	mov    edx,DWORD PTR [ebp-0x34]
 804c2fc:	89 50 1c             	mov    DWORD PTR [eax+0x1c],edx
 804c2ff:	8b 85 7c ff ff ff    	mov    eax,DWORD PTR [ebp-0x84]
 804c305:	c7 40 14 00 00 00 00 	mov    DWORD PTR [eax+0x14],0x0
 804c30c:	8b 85 7c ff ff ff    	mov    eax,DWORD PTR [ebp-0x84]
 804c312:	8b 50 14             	mov    edx,DWORD PTR [eax+0x14]
 804c315:	8b 85 7c ff ff ff    	mov    eax,DWORD PTR [ebp-0x84]
 804c31b:	89 50 10             	mov    DWORD PTR [eax+0x10],edx
 804c31e:	8b 45 08             	mov    eax,DWORD PTR [ebp+0x8]
 804c321:	8b 50 04             	mov    edx,DWORD PTR [eax+0x4]
 804c324:	8b 45 cc             	mov    eax,DWORD PTR [ebp-0x34]
 804c327:	bb 01 00 00 00       	mov    ebx,0x1
 804c32c:	89 de                	mov    esi,ebx
 804c32e:	89 c1                	mov    ecx,eax
 804c330:	d3 e6                	shl    esi,cl
 804c332:	89 f0                	mov    eax,esi
 804c334:	21 d0                	and    eax,edx
 804c336:	85 c0                	test   eax,eax
 804c338:	75 61                	jne    804c39b <tmalloc_large+0x5b7>
 804c33a:	8b 45 08             	mov    eax,DWORD PTR [ebp+0x8]
 804c33d:	8b 50 04             	mov    edx,DWORD PTR [eax+0x4]
 804c340:	8b 45 cc             	mov    eax,DWORD PTR [ebp-0x34]
 804c343:	bb 01 00 00 00       	mov    ebx,0x1
 804c348:	89 de                	mov    esi,ebx
 804c34a:	89 c1                	mov    ecx,eax
 804c34c:	d3 e6                	shl    esi,cl
 804c34e:	89 f0                	mov    eax,esi
 804c350:	09 c2                	or     edx,eax
 804c352:	8b 45 08             	mov    eax,DWORD PTR [ebp+0x8]
 804c355:	89 50 04             	mov    DWORD PTR [eax+0x4],edx
 804c358:	8b 85 70 ff ff ff    	mov    eax,DWORD PTR [ebp-0x90]
 804c35e:	8b 95 7c ff ff ff    	mov    edx,DWORD PTR [ebp-0x84]
 804c364:	89 10                	mov    DWORD PTR [eax],edx
 804c366:	8b 85 7c ff ff ff    	mov    eax,DWORD PTR [ebp-0x84]
 804c36c:	8b 95 70 ff ff ff    	mov    edx,DWORD PTR [ebp-0x90]
 804c372:	89 50 18             	mov    DWORD PTR [eax+0x18],edx
 804c375:	8b 85 7c ff ff ff    	mov    eax,DWORD PTR [ebp-0x84]
 804c37b:	8b 95 7c ff ff ff    	mov    edx,DWORD PTR [ebp-0x84]
 804c381:	89 50 0c             	mov    DWORD PTR [eax+0xc],edx
 804c384:	8b 85 7c ff ff ff    	mov    eax,DWORD PTR [ebp-0x84]
 804c38a:	8b 50 0c             	mov    edx,DWORD PTR [eax+0xc]
 804c38d:	8b 85 7c ff ff ff    	mov    eax,DWORD PTR [ebp-0x84]
 804c393:	89 50 08             	mov    DWORD PTR [eax+0x8],edx
 804c396:	e9 08 01 00 00       	jmp    804c4a3 <tmalloc_large+0x6bf>
 804c39b:	8b 85 70 ff ff ff    	mov    eax,DWORD PTR [ebp-0x90]
 804c3a1:	8b 00                	mov    eax,DWORD PTR [eax]
 804c3a3:	89 45 c8             	mov    DWORD PTR [ebp-0x38],eax
 804c3a6:	83 7d cc 1f          	cmp    DWORD PTR [ebp-0x34],0x1f
 804c3aa:	74 10                	je     804c3bc <tmalloc_large+0x5d8>
 804c3ac:	8b 45 cc             	mov    eax,DWORD PTR [ebp-0x34]
 804c3af:	89 c2                	mov    edx,eax
 804c3b1:	d1 ea                	shr    edx,1
 804c3b3:	b8 19 00 00 00       	mov    eax,0x19
 804c3b8:	29 d0                	sub    eax,edx
 804c3ba:	eb 05                	jmp    804c3c1 <tmalloc_large+0x5dd>
 804c3bc:	b8 00 00 00 00       	mov    eax,0x0
 804c3c1:	8b 55 f0             	mov    edx,DWORD PTR [ebp-0x10]
 804c3c4:	89 d3                	mov    ebx,edx
 804c3c6:	89 c1                	mov    ecx,eax
 804c3c8:	d3 e3                	shl    ebx,cl
 804c3ca:	89 d8                	mov    eax,ebx
 804c3cc:	89 45 c4             	mov    DWORD PTR [ebp-0x3c],eax
 804c3cf:	8b 45 c8             	mov    eax,DWORD PTR [ebp-0x38]
 804c3d2:	8b 40 04             	mov    eax,DWORD PTR [eax+0x4]
 804c3d5:	83 e0 f8             	and    eax,0xfffffff8
 804c3d8:	3b 45 f0             	cmp    eax,DWORD PTR [ebp-0x10]
 804c3db:	74 74                	je     804c451 <tmalloc_large+0x66d>
 804c3dd:	8b 45 c4             	mov    eax,DWORD PTR [ebp-0x3c]
 804c3e0:	c1 e8 1f             	shr    eax,0x1f
 804c3e3:	83 c0 04             	add    eax,0x4
 804c3e6:	8d 14 85 00 00 00 00 	lea    edx,[eax*4+0x0]
 804c3ed:	8b 45 c8             	mov    eax,DWORD PTR [ebp-0x38]
 804c3f0:	01 d0                	add    eax,edx
 804c3f2:	89 85 6c ff ff ff    	mov    DWORD PTR [ebp-0x94],eax
 804c3f8:	d1 65 c4             	shl    DWORD PTR [ebp-0x3c],1
 804c3fb:	8b 85 6c ff ff ff    	mov    eax,DWORD PTR [ebp-0x94]
 804c401:	8b 00                	mov    eax,DWORD PTR [eax]
 804c403:	85 c0                	test   eax,eax
 804c405:	74 0d                	je     804c414 <tmalloc_large+0x630>
 804c407:	8b 85 6c ff ff ff    	mov    eax,DWORD PTR [ebp-0x94]
 804c40d:	8b 00                	mov    eax,DWORD PTR [eax]
 804c40f:	89 45 c8             	mov    DWORD PTR [ebp-0x38],eax
 804c412:	eb bb                	jmp    804c3cf <tmalloc_large+0x5eb>
 804c414:	8b 85 6c ff ff ff    	mov    eax,DWORD PTR [ebp-0x94]
 804c41a:	8b 95 7c ff ff ff    	mov    edx,DWORD PTR [ebp-0x84]
 804c420:	89 10                	mov    DWORD PTR [eax],edx
 804c422:	8b 85 7c ff ff ff    	mov    eax,DWORD PTR [ebp-0x84]
 804c428:	8b 55 c8             	mov    edx,DWORD PTR [ebp-0x38]
 804c42b:	89 50 18             	mov    DWORD PTR [eax+0x18],edx
 804c42e:	8b 85 7c ff ff ff    	mov    eax,DWORD PTR [ebp-0x84]
 804c434:	8b 95 7c ff ff ff    	mov    edx,DWORD PTR [ebp-0x84]
 804c43a:	89 50 0c             	mov    DWORD PTR [eax+0xc],edx
 804c43d:	8b 85 7c ff ff ff    	mov    eax,DWORD PTR [ebp-0x84]
 804c443:	8b 50 0c             	mov    edx,DWORD PTR [eax+0xc]
 804c446:	8b 85 7c ff ff ff    	mov    eax,DWORD PTR [ebp-0x84]
 804c44c:	89 50 08             	mov    DWORD PTR [eax+0x8],edx
 804c44f:	eb 52                	jmp    804c4a3 <tmalloc_large+0x6bf>
 804c451:	8b 45 c8             	mov    eax,DWORD PTR [ebp-0x38]
 804c454:	8b 40 08             	mov    eax,DWORD PTR [eax+0x8]
 804c457:	89 85 68 ff ff ff    	mov    DWORD PTR [ebp-0x98],eax
 804c45d:	8b 85 68 ff ff ff    	mov    eax,DWORD PTR [ebp-0x98]
 804c463:	8b 95 7c ff ff ff    	mov    edx,DWORD PTR [ebp-0x84]
 804c469:	89 50 0c             	mov    DWORD PTR [eax+0xc],edx
 804c46c:	8b 85 68 ff ff ff    	mov    eax,DWORD PTR [ebp-0x98]
 804c472:	8b 50 0c             	mov    edx,DWORD PTR [eax+0xc]
 804c475:	8b 45 c8             	mov    eax,DWORD PTR [ebp-0x38]
 804c478:	89 50 08             	mov    DWORD PTR [eax+0x8],edx
 804c47b:	8b 85 7c ff ff ff    	mov    eax,DWORD PTR [ebp-0x84]
 804c481:	8b 95 68 ff ff ff    	mov    edx,DWORD PTR [ebp-0x98]
 804c487:	89 50 08             	mov    DWORD PTR [eax+0x8],edx
 804c48a:	8b 85 7c ff ff ff    	mov    eax,DWORD PTR [ebp-0x84]
 804c490:	8b 55 c8             	mov    edx,DWORD PTR [ebp-0x38]
 804c493:	89 50 0c             	mov    DWORD PTR [eax+0xc],edx
 804c496:	8b 85 7c ff ff ff    	mov    eax,DWORD PTR [ebp-0x84]
 804c49c:	c7 40 18 00 00 00 00 	mov    DWORD PTR [eax+0x18],0x0
 804c4a3:	8b 45 f4             	mov    eax,DWORD PTR [ebp-0xc]
 804c4a6:	83 c0 08             	add    eax,0x8
 804c4a9:	eb 05                	jmp    804c4b0 <tmalloc_large+0x6cc>
 804c4ab:	b8 00 00 00 00       	mov    eax,0x0
 804c4b0:	81 c4 90 00 00 00    	add    esp,0x90
 804c4b6:	5b                   	pop    ebx
 804c4b7:	5e                   	pop    esi
 804c4b8:	5d                   	pop    ebp
 804c4b9:	c3                   	ret    

0804c4ba <tmalloc_small>:
 804c4ba:	55                   	push   ebp
 804c4bb:	89 e5                	mov    ebp,esp
 804c4bd:	56                   	push   esi
 804c4be:	53                   	push   ebx
 804c4bf:	83 ec 60             	sub    esp,0x60
 804c4c2:	8b 45 08             	mov    eax,DWORD PTR [ebp+0x8]
 804c4c5:	8b 50 04             	mov    edx,DWORD PTR [eax+0x4]
 804c4c8:	8b 45 08             	mov    eax,DWORD PTR [ebp+0x8]
 804c4cb:	8b 40 04             	mov    eax,DWORD PTR [eax+0x4]
 804c4ce:	f7 d8                	neg    eax
 804c4d0:	21 d0                	and    eax,edx
 804c4d2:	89 45 d8             	mov    DWORD PTR [ebp-0x28],eax
 804c4d5:	0f bc 5d d8          	bsf    ebx,DWORD PTR [ebp-0x28]
 804c4d9:	89 5d d4             	mov    DWORD PTR [ebp-0x2c],ebx
 804c4dc:	8b 45 d4             	mov    eax,DWORD PTR [ebp-0x2c]
 804c4df:	89 45 d0             	mov    DWORD PTR [ebp-0x30],eax
 804c4e2:	8b 45 08             	mov    eax,DWORD PTR [ebp+0x8]
 804c4e5:	8b 55 d0             	mov    edx,DWORD PTR [ebp-0x30]
 804c4e8:	83 c2 4c             	add    edx,0x4c
 804c4eb:	8b 04 90             	mov    eax,DWORD PTR [eax+edx*4]
 804c4ee:	89 45 f4             	mov    DWORD PTR [ebp-0xc],eax
 804c4f1:	8b 45 f4             	mov    eax,DWORD PTR [ebp-0xc]
 804c4f4:	89 45 f0             	mov    DWORD PTR [ebp-0x10],eax
 804c4f7:	8b 45 f4             	mov    eax,DWORD PTR [ebp-0xc]
 804c4fa:	8b 40 04             	mov    eax,DWORD PTR [eax+0x4]
 804c4fd:	83 e0 f8             	and    eax,0xfffffff8
 804c500:	2b 45 0c             	sub    eax,DWORD PTR [ebp+0xc]
 804c503:	89 45 ec             	mov    DWORD PTR [ebp-0x14],eax
 804c506:	eb 23                	jmp    804c52b <tmalloc_small+0x71>
 804c508:	8b 45 f4             	mov    eax,DWORD PTR [ebp-0xc]
 804c50b:	8b 40 04             	mov    eax,DWORD PTR [eax+0x4]
 804c50e:	83 e0 f8             	and    eax,0xfffffff8
 804c511:	2b 45 0c             	sub    eax,DWORD PTR [ebp+0xc]
 804c514:	89 45 cc             	mov    DWORD PTR [ebp-0x34],eax
 804c517:	8b 45 cc             	mov    eax,DWORD PTR [ebp-0x34]
 804c51a:	3b 45 ec             	cmp    eax,DWORD PTR [ebp-0x14]
 804c51d:	73 0c                	jae    804c52b <tmalloc_small+0x71>
 804c51f:	8b 45 cc             	mov    eax,DWORD PTR [ebp-0x34]
 804c522:	89 45 ec             	mov    DWORD PTR [ebp-0x14],eax
 804c525:	8b 45 f4             	mov    eax,DWORD PTR [ebp-0xc]
 804c528:	89 45 f0             	mov    DWORD PTR [ebp-0x10],eax
 804c52b:	8b 45 f4             	mov    eax,DWORD PTR [ebp-0xc]
 804c52e:	8b 40 10             	mov    eax,DWORD PTR [eax+0x10]
 804c531:	85 c0                	test   eax,eax
 804c533:	74 08                	je     804c53d <tmalloc_small+0x83>
 804c535:	8b 45 f4             	mov    eax,DWORD PTR [ebp-0xc]
 804c538:	8b 40 10             	mov    eax,DWORD PTR [eax+0x10]
 804c53b:	eb 06                	jmp    804c543 <tmalloc_small+0x89>
 804c53d:	8b 45 f4             	mov    eax,DWORD PTR [ebp-0xc]
 804c540:	8b 40 14             	mov    eax,DWORD PTR [eax+0x14]
 804c543:	89 45 f4             	mov    DWORD PTR [ebp-0xc],eax
 804c546:	83 7d f4 00          	cmp    DWORD PTR [ebp-0xc],0x0
 804c54a:	75 bc                	jne    804c508 <tmalloc_small+0x4e>
 804c54c:	8b 45 0c             	mov    eax,DWORD PTR [ebp+0xc]
 804c54f:	8b 55 f0             	mov    edx,DWORD PTR [ebp-0x10]
 804c552:	01 d0                	add    eax,edx
 804c554:	89 45 c8             	mov    DWORD PTR [ebp-0x38],eax
 804c557:	8b 45 f0             	mov    eax,DWORD PTR [ebp-0x10]
 804c55a:	8b 40 18             	mov    eax,DWORD PTR [eax+0x18]
 804c55d:	89 45 c4             	mov    DWORD PTR [ebp-0x3c],eax
 804c560:	8b 45 f0             	mov    eax,DWORD PTR [ebp-0x10]
 804c563:	8b 40 0c             	mov    eax,DWORD PTR [eax+0xc]
 804c566:	3b 45 f0             	cmp    eax,DWORD PTR [ebp-0x10]
 804c569:	74 26                	je     804c591 <tmalloc_small+0xd7>
 804c56b:	8b 45 f0             	mov    eax,DWORD PTR [ebp-0x10]
 804c56e:	8b 40 08             	mov    eax,DWORD PTR [eax+0x8]
 804c571:	89 45 c0             	mov    DWORD PTR [ebp-0x40],eax
 804c574:	8b 45 f0             	mov    eax,DWORD PTR [ebp-0x10]
 804c577:	8b 40 0c             	mov    eax,DWORD PTR [eax+0xc]
 804c57a:	89 45 e8             	mov    DWORD PTR [ebp-0x18],eax
 804c57d:	8b 45 c0             	mov    eax,DWORD PTR [ebp-0x40]
 804c580:	8b 55 e8             	mov    edx,DWORD PTR [ebp-0x18]
 804c583:	89 50 0c             	mov    DWORD PTR [eax+0xc],edx
 804c586:	8b 45 e8             	mov    eax,DWORD PTR [ebp-0x18]
 804c589:	8b 55 c0             	mov    edx,DWORD PTR [ebp-0x40]
 804c58c:	89 50 08             	mov    DWORD PTR [eax+0x8],edx
 804c58f:	eb 6b                	jmp    804c5fc <tmalloc_small+0x142>
 804c591:	8b 45 f0             	mov    eax,DWORD PTR [ebp-0x10]
 804c594:	83 c0 14             	add    eax,0x14
 804c597:	89 45 e4             	mov    DWORD PTR [ebp-0x1c],eax
 804c59a:	8b 45 e4             	mov    eax,DWORD PTR [ebp-0x1c]
 804c59d:	8b 00                	mov    eax,DWORD PTR [eax]
 804c59f:	89 45 e8             	mov    DWORD PTR [ebp-0x18],eax
 804c5a2:	83 7d e8 00          	cmp    DWORD PTR [ebp-0x18],0x0
 804c5a6:	75 27                	jne    804c5cf <tmalloc_small+0x115>
 804c5a8:	8b 45 f0             	mov    eax,DWORD PTR [ebp-0x10]
 804c5ab:	83 c0 10             	add    eax,0x10
 804c5ae:	89 45 e4             	mov    DWORD PTR [ebp-0x1c],eax
 804c5b1:	8b 45 e4             	mov    eax,DWORD PTR [ebp-0x1c]
 804c5b4:	8b 00                	mov    eax,DWORD PTR [eax]
 804c5b6:	89 45 e8             	mov    DWORD PTR [ebp-0x18],eax
 804c5b9:	83 7d e8 00          	cmp    DWORD PTR [ebp-0x18],0x0
 804c5bd:	74 3d                	je     804c5fc <tmalloc_small+0x142>
 804c5bf:	eb 0e                	jmp    804c5cf <tmalloc_small+0x115>
 804c5c1:	8b 45 e0             	mov    eax,DWORD PTR [ebp-0x20]
 804c5c4:	89 45 e4             	mov    DWORD PTR [ebp-0x1c],eax
 804c5c7:	8b 45 e4             	mov    eax,DWORD PTR [ebp-0x1c]
 804c5ca:	8b 00                	mov    eax,DWORD PTR [eax]
 804c5cc:	89 45 e8             	mov    DWORD PTR [ebp-0x18],eax
 804c5cf:	8b 45 e8             	mov    eax,DWORD PTR [ebp-0x18]
 804c5d2:	83 c0 14             	add    eax,0x14
 804c5d5:	89 45 e0             	mov    DWORD PTR [ebp-0x20],eax
 804c5d8:	8b 45 e0             	mov    eax,DWORD PTR [ebp-0x20]
 804c5db:	8b 00                	mov    eax,DWORD PTR [eax]
 804c5dd:	85 c0                	test   eax,eax
 804c5df:	75 e0                	jne    804c5c1 <tmalloc_small+0x107>
 804c5e1:	8b 45 e8             	mov    eax,DWORD PTR [ebp-0x18]
 804c5e4:	83 c0 10             	add    eax,0x10
 804c5e7:	89 45 e0             	mov    DWORD PTR [ebp-0x20],eax
 804c5ea:	8b 45 e0             	mov    eax,DWORD PTR [ebp-0x20]
 804c5ed:	8b 00                	mov    eax,DWORD PTR [eax]
 804c5ef:	85 c0                	test   eax,eax
 804c5f1:	75 ce                	jne    804c5c1 <tmalloc_small+0x107>
 804c5f3:	8b 45 e4             	mov    eax,DWORD PTR [ebp-0x1c]
 804c5f6:	c7 00 00 00 00 00    	mov    DWORD PTR [eax],0x0
 804c5fc:	83 7d c4 00          	cmp    DWORD PTR [ebp-0x3c],0x0
 804c600:	0f 84 c8 00 00 00    	je     804c6ce <tmalloc_small+0x214>
 804c606:	8b 45 f0             	mov    eax,DWORD PTR [ebp-0x10]
 804c609:	8b 40 1c             	mov    eax,DWORD PTR [eax+0x1c]
 804c60c:	83 c0 4c             	add    eax,0x4c
 804c60f:	8d 14 85 00 00 00 00 	lea    edx,[eax*4+0x0]
 804c616:	8b 45 08             	mov    eax,DWORD PTR [ebp+0x8]
 804c619:	01 d0                	add    eax,edx
 804c61b:	89 45 bc             	mov    DWORD PTR [ebp-0x44],eax
 804c61e:	8b 45 bc             	mov    eax,DWORD PTR [ebp-0x44]
 804c621:	8b 00                	mov    eax,DWORD PTR [eax]
 804c623:	3b 45 f0             	cmp    eax,DWORD PTR [ebp-0x10]
 804c626:	75 36                	jne    804c65e <tmalloc_small+0x1a4>
 804c628:	8b 45 bc             	mov    eax,DWORD PTR [ebp-0x44]
 804c62b:	8b 55 e8             	mov    edx,DWORD PTR [ebp-0x18]
 804c62e:	89 10                	mov    DWORD PTR [eax],edx
 804c630:	8b 45 bc             	mov    eax,DWORD PTR [ebp-0x44]
 804c633:	8b 00                	mov    eax,DWORD PTR [eax]
 804c635:	85 c0                	test   eax,eax
 804c637:	75 44                	jne    804c67d <tmalloc_small+0x1c3>
 804c639:	8b 45 08             	mov    eax,DWORD PTR [ebp+0x8]
 804c63c:	8b 50 04             	mov    edx,DWORD PTR [eax+0x4]
 804c63f:	8b 45 f0             	mov    eax,DWORD PTR [ebp-0x10]
 804c642:	8b 40 1c             	mov    eax,DWORD PTR [eax+0x1c]
 804c645:	bb 01 00 00 00       	mov    ebx,0x1
 804c64a:	89 de                	mov    esi,ebx
 804c64c:	89 c1                	mov    ecx,eax
 804c64e:	d3 e6                	shl    esi,cl
 804c650:	89 f0                	mov    eax,esi
 804c652:	f7 d0                	not    eax
 804c654:	21 c2                	and    edx,eax
 804c656:	8b 45 08             	mov    eax,DWORD PTR [ebp+0x8]
 804c659:	89 50 04             	mov    DWORD PTR [eax+0x4],edx
 804c65c:	eb 1f                	jmp    804c67d <tmalloc_small+0x1c3>
 804c65e:	8b 45 c4             	mov    eax,DWORD PTR [ebp-0x3c]
 804c661:	8b 40 10             	mov    eax,DWORD PTR [eax+0x10]
 804c664:	3b 45 f0             	cmp    eax,DWORD PTR [ebp-0x10]
 804c667:	75 0b                	jne    804c674 <tmalloc_small+0x1ba>
 804c669:	8b 45 c4             	mov    eax,DWORD PTR [ebp-0x3c]
 804c66c:	8b 55 e8             	mov    edx,DWORD PTR [ebp-0x18]
 804c66f:	89 50 10             	mov    DWORD PTR [eax+0x10],edx
 804c672:	eb 09                	jmp    804c67d <tmalloc_small+0x1c3>
 804c674:	8b 45 c4             	mov    eax,DWORD PTR [ebp-0x3c]
 804c677:	8b 55 e8             	mov    edx,DWORD PTR [ebp-0x18]
 804c67a:	89 50 14             	mov    DWORD PTR [eax+0x14],edx
 804c67d:	83 7d e8 00          	cmp    DWORD PTR [ebp-0x18],0x0
 804c681:	74 4b                	je     804c6ce <tmalloc_small+0x214>
 804c683:	8b 45 e8             	mov    eax,DWORD PTR [ebp-0x18]
 804c686:	8b 55 c4             	mov    edx,DWORD PTR [ebp-0x3c]
 804c689:	89 50 18             	mov    DWORD PTR [eax+0x18],edx
 804c68c:	8b 45 f0             	mov    eax,DWORD PTR [ebp-0x10]
 804c68f:	8b 40 10             	mov    eax,DWORD PTR [eax+0x10]
 804c692:	89 45 b8             	mov    DWORD PTR [ebp-0x48],eax
 804c695:	83 7d b8 00          	cmp    DWORD PTR [ebp-0x48],0x0
 804c699:	74 12                	je     804c6ad <tmalloc_small+0x1f3>
 804c69b:	8b 45 e8             	mov    eax,DWORD PTR [ebp-0x18]
 804c69e:	8b 55 b8             	mov    edx,DWORD PTR [ebp-0x48]
 804c6a1:	89 50 10             	mov    DWORD PTR [eax+0x10],edx
 804c6a4:	8b 45 b8             	mov    eax,DWORD PTR [ebp-0x48]
 804c6a7:	8b 55 e8             	mov    edx,DWORD PTR [ebp-0x18]
 804c6aa:	89 50 18             	mov    DWORD PTR [eax+0x18],edx
 804c6ad:	8b 45 f0             	mov    eax,DWORD PTR [ebp-0x10]
 804c6b0:	8b 40 14             	mov    eax,DWORD PTR [eax+0x14]
 804c6b3:	89 45 b4             	mov    DWORD PTR [ebp-0x4c],eax
 804c6b6:	83 7d b4 00          	cmp    DWORD PTR [ebp-0x4c],0x0
 804c6ba:	74 12                	je     804c6ce <tmalloc_small+0x214>
 804c6bc:	8b 45 e8             	mov    eax,DWORD PTR [ebp-0x18]
 804c6bf:	8b 55 b4             	mov    edx,DWORD PTR [ebp-0x4c]
 804c6c2:	89 50 14             	mov    DWORD PTR [eax+0x14],edx
 804c6c5:	8b 45 b4             	mov    eax,DWORD PTR [ebp-0x4c]
 804c6c8:	8b 55 e8             	mov    edx,DWORD PTR [ebp-0x18]
 804c6cb:	89 50 18             	mov    DWORD PTR [eax+0x18],edx
 804c6ce:	83 7d ec 0f          	cmp    DWORD PTR [ebp-0x14],0xf
 804c6d2:	77 3b                	ja     804c70f <tmalloc_small+0x255>
 804c6d4:	8b 45 0c             	mov    eax,DWORD PTR [ebp+0xc]
 804c6d7:	8b 55 ec             	mov    edx,DWORD PTR [ebp-0x14]
 804c6da:	01 d0                	add    eax,edx
 804c6dc:	89 c2                	mov    edx,eax
 804c6de:	83 ca 03             	or     edx,0x3
 804c6e1:	8b 45 f0             	mov    eax,DWORD PTR [ebp-0x10]
 804c6e4:	89 50 04             	mov    DWORD PTR [eax+0x4],edx
 804c6e7:	8b 45 0c             	mov    eax,DWORD PTR [ebp+0xc]
 804c6ea:	8b 55 ec             	mov    edx,DWORD PTR [ebp-0x14]
 804c6ed:	01 c2                	add    edx,eax
 804c6ef:	8b 45 f0             	mov    eax,DWORD PTR [ebp-0x10]
 804c6f2:	01 d0                	add    eax,edx
 804c6f4:	8b 55 0c             	mov    edx,DWORD PTR [ebp+0xc]
 804c6f7:	8b 4d ec             	mov    ecx,DWORD PTR [ebp-0x14]
 804c6fa:	01 d1                	add    ecx,edx
 804c6fc:	8b 55 f0             	mov    edx,DWORD PTR [ebp-0x10]
 804c6ff:	01 ca                	add    edx,ecx
 804c701:	8b 52 04             	mov    edx,DWORD PTR [edx+0x4]
 804c704:	83 ca 01             	or     edx,0x1
 804c707:	89 50 04             	mov    DWORD PTR [eax+0x4],edx
 804c70a:	e9 e6 00 00 00       	jmp    804c7f5 <tmalloc_small+0x33b>
 804c70f:	8b 45 0c             	mov    eax,DWORD PTR [ebp+0xc]
 804c712:	89 c2                	mov    edx,eax
 804c714:	83 ca 03             	or     edx,0x3
 804c717:	8b 45 f0             	mov    eax,DWORD PTR [ebp-0x10]
 804c71a:	89 50 04             	mov    DWORD PTR [eax+0x4],edx
 804c71d:	8b 45 ec             	mov    eax,DWORD PTR [ebp-0x14]
 804c720:	89 c2                	mov    edx,eax
 804c722:	83 ca 01             	or     edx,0x1
 804c725:	8b 45 c8             	mov    eax,DWORD PTR [ebp-0x38]
 804c728:	89 50 04             	mov    DWORD PTR [eax+0x4],edx
 804c72b:	8b 45 ec             	mov    eax,DWORD PTR [ebp-0x14]
 804c72e:	8b 55 c8             	mov    edx,DWORD PTR [ebp-0x38]
 804c731:	01 c2                	add    edx,eax
 804c733:	8b 45 ec             	mov    eax,DWORD PTR [ebp-0x14]
 804c736:	89 02                	mov    DWORD PTR [edx],eax
 804c738:	8b 45 08             	mov    eax,DWORD PTR [ebp+0x8]
 804c73b:	8b 40 08             	mov    eax,DWORD PTR [eax+0x8]
 804c73e:	89 45 b0             	mov    DWORD PTR [ebp-0x50],eax
 804c741:	83 7d b0 00          	cmp    DWORD PTR [ebp-0x50],0x0
 804c745:	0f 84 98 00 00 00    	je     804c7e3 <tmalloc_small+0x329>
 804c74b:	8b 45 08             	mov    eax,DWORD PTR [ebp+0x8]
 804c74e:	8b 40 14             	mov    eax,DWORD PTR [eax+0x14]
 804c751:	89 45 ac             	mov    DWORD PTR [ebp-0x54],eax
 804c754:	8b 45 b0             	mov    eax,DWORD PTR [ebp-0x50]
 804c757:	c1 e8 03             	shr    eax,0x3
 804c75a:	89 45 a8             	mov    DWORD PTR [ebp-0x58],eax
 804c75d:	8b 45 a8             	mov    eax,DWORD PTR [ebp-0x58]
 804c760:	01 c0                	add    eax,eax
 804c762:	83 c0 08             	add    eax,0x8
 804c765:	8d 14 85 00 00 00 00 	lea    edx,[eax*4+0x0]
 804c76c:	8b 45 08             	mov    eax,DWORD PTR [ebp+0x8]
 804c76f:	01 d0                	add    eax,edx
 804c771:	83 c0 08             	add    eax,0x8
 804c774:	89 45 a4             	mov    DWORD PTR [ebp-0x5c],eax
 804c777:	8b 45 a4             	mov    eax,DWORD PTR [ebp-0x5c]
 804c77a:	89 45 dc             	mov    DWORD PTR [ebp-0x24],eax
 804c77d:	8b 45 08             	mov    eax,DWORD PTR [ebp+0x8]
 804c780:	8b 10                	mov    edx,DWORD PTR [eax]
 804c782:	8b 45 a8             	mov    eax,DWORD PTR [ebp-0x58]
 804c785:	bb 01 00 00 00       	mov    ebx,0x1
 804c78a:	89 de                	mov    esi,ebx
 804c78c:	89 c1                	mov    ecx,eax
 804c78e:	d3 e6                	shl    esi,cl
 804c790:	89 f0                	mov    eax,esi
 804c792:	21 d0                	and    eax,edx
 804c794:	85 c0                	test   eax,eax
 804c796:	75 1e                	jne    804c7b6 <tmalloc_small+0x2fc>
 804c798:	8b 45 08             	mov    eax,DWORD PTR [ebp+0x8]
 804c79b:	8b 10                	mov    edx,DWORD PTR [eax]
 804c79d:	8b 45 a8             	mov    eax,DWORD PTR [ebp-0x58]
 804c7a0:	bb 01 00 00 00       	mov    ebx,0x1
 804c7a5:	89 de                	mov    esi,ebx
 804c7a7:	89 c1                	mov    ecx,eax
 804c7a9:	d3 e6                	shl    esi,cl
 804c7ab:	89 f0                	mov    eax,esi
 804c7ad:	09 c2                	or     edx,eax
 804c7af:	8b 45 08             	mov    eax,DWORD PTR [ebp+0x8]
 804c7b2:	89 10                	mov    DWORD PTR [eax],edx
 804c7b4:	eb 09                	jmp    804c7bf <tmalloc_small+0x305>
 804c7b6:	8b 45 a4             	mov    eax,DWORD PTR [ebp-0x5c]
 804c7b9:	8b 40 08             	mov    eax,DWORD PTR [eax+0x8]
 804c7bc:	89 45 dc             	mov    DWORD PTR [ebp-0x24],eax
 804c7bf:	8b 45 a4             	mov    eax,DWORD PTR [ebp-0x5c]
 804c7c2:	8b 55 ac             	mov    edx,DWORD PTR [ebp-0x54]
 804c7c5:	89 50 08             	mov    DWORD PTR [eax+0x8],edx
 804c7c8:	8b 45 dc             	mov    eax,DWORD PTR [ebp-0x24]
 804c7cb:	8b 55 ac             	mov    edx,DWORD PTR [ebp-0x54]
 804c7ce:	89 50 0c             	mov    DWORD PTR [eax+0xc],edx
 804c7d1:	8b 45 ac             	mov    eax,DWORD PTR [ebp-0x54]
 804c7d4:	8b 55 dc             	mov    edx,DWORD PTR [ebp-0x24]
 804c7d7:	89 50 08             	mov    DWORD PTR [eax+0x8],edx
 804c7da:	8b 45 ac             	mov    eax,DWORD PTR [ebp-0x54]
 804c7dd:	8b 55 a4             	mov    edx,DWORD PTR [ebp-0x5c]
 804c7e0:	89 50 0c             	mov    DWORD PTR [eax+0xc],edx
 804c7e3:	8b 45 08             	mov    eax,DWORD PTR [ebp+0x8]
 804c7e6:	8b 55 ec             	mov    edx,DWORD PTR [ebp-0x14]
 804c7e9:	89 50 08             	mov    DWORD PTR [eax+0x8],edx
 804c7ec:	8b 45 08             	mov    eax,DWORD PTR [ebp+0x8]
 804c7ef:	8b 55 c8             	mov    edx,DWORD PTR [ebp-0x38]
 804c7f2:	89 50 14             	mov    DWORD PTR [eax+0x14],edx
 804c7f5:	8b 45 f0             	mov    eax,DWORD PTR [ebp-0x10]
 804c7f8:	83 c0 08             	add    eax,0x8
 804c7fb:	83 c4 60             	add    esp,0x60
 804c7fe:	5b                   	pop    ebx
 804c7ff:	5e                   	pop    esi
 804c800:	5d                   	pop    ebp
 804c801:	c3                   	ret    

0804c802 <internal_realloc>:
 804c802:	55                   	push   ebp
 804c803:	89 e5                	mov    ebp,esp
 804c805:	83 ec 58             	sub    esp,0x58
 804c808:	83 7d 10 bf          	cmp    DWORD PTR [ebp+0x10],0xffffffbf
 804c80c:	76 15                	jbe    804c823 <internal_realloc+0x21>
 804c80e:	e8 ad c2 ff ff       	call   8048ac0 <__errno_location@plt>
 804c813:	c7 00 0c 00 00 00    	mov    DWORD PTR [eax],0xc
 804c819:	b8 00 00 00 00       	mov    eax,0x0
 804c81e:	e9 35 02 00 00       	jmp    804ca58 <internal_realloc+0x256>
 804c823:	8b 45 0c             	mov    eax,DWORD PTR [ebp+0xc]
 804c826:	83 e8 08             	sub    eax,0x8
 804c829:	89 45 ec             	mov    DWORD PTR [ebp-0x14],eax
 804c82c:	8b 45 ec             	mov    eax,DWORD PTR [ebp-0x14]
 804c82f:	8b 40 04             	mov    eax,DWORD PTR [eax+0x4]
 804c832:	83 e0 f8             	and    eax,0xfffffff8
 804c835:	89 45 e8             	mov    DWORD PTR [ebp-0x18],eax
 804c838:	8b 45 e8             	mov    eax,DWORD PTR [ebp-0x18]
 804c83b:	8b 55 ec             	mov    edx,DWORD PTR [ebp-0x14]
 804c83e:	01 d0                	add    eax,edx
 804c840:	89 45 e4             	mov    DWORD PTR [ebp-0x1c],eax
 804c843:	c7 45 f4 00 00 00 00 	mov    DWORD PTR [ebp-0xc],0x0
 804c84a:	c7 45 f0 00 00 00 00 	mov    DWORD PTR [ebp-0x10],0x0
 804c851:	83 7d 10 0a          	cmp    DWORD PTR [ebp+0x10],0xa
 804c855:	76 0b                	jbe    804c862 <internal_realloc+0x60>
 804c857:	8b 45 10             	mov    eax,DWORD PTR [ebp+0x10]
 804c85a:	83 c0 0b             	add    eax,0xb
 804c85d:	83 e0 f8             	and    eax,0xfffffff8
 804c860:	eb 05                	jmp    804c867 <internal_realloc+0x65>
 804c862:	b8 10 00 00 00       	mov    eax,0x10
 804c867:	89 45 e0             	mov    DWORD PTR [ebp-0x20],eax
 804c86a:	8b 45 ec             	mov    eax,DWORD PTR [ebp-0x14]
 804c86d:	8b 40 04             	mov    eax,DWORD PTR [eax+0x4]
 804c870:	83 e0 03             	and    eax,0x3
 804c873:	85 c0                	test   eax,eax
 804c875:	75 21                	jne    804c898 <internal_realloc+0x96>
 804c877:	8b 45 e0             	mov    eax,DWORD PTR [ebp-0x20]
 804c87a:	89 44 24 08          	mov    DWORD PTR [esp+0x8],eax
 804c87e:	8b 45 ec             	mov    eax,DWORD PTR [ebp-0x14]
 804c881:	89 44 24 04          	mov    DWORD PTR [esp+0x4],eax
 804c885:	8b 45 08             	mov    eax,DWORD PTR [ebp+0x8]
 804c888:	89 04 24             	mov    DWORD PTR [esp],eax
 804c88b:	e8 cf db ff ff       	call   804a45f <mmap_resize>
 804c890:	89 45 f4             	mov    DWORD PTR [ebp-0xc],eax
 804c893:	e9 38 01 00 00       	jmp    804c9d0 <internal_realloc+0x1ce>
 804c898:	8b 45 e8             	mov    eax,DWORD PTR [ebp-0x18]
 804c89b:	3b 45 e0             	cmp    eax,DWORD PTR [ebp-0x20]
 804c89e:	0f 82 8f 00 00 00    	jb     804c933 <internal_realloc+0x131>
 804c8a4:	8b 45 e0             	mov    eax,DWORD PTR [ebp-0x20]
 804c8a7:	8b 55 e8             	mov    edx,DWORD PTR [ebp-0x18]
 804c8aa:	89 d1                	mov    ecx,edx
 804c8ac:	29 c1                	sub    ecx,eax
 804c8ae:	89 c8                	mov    eax,ecx
 804c8b0:	89 45 dc             	mov    DWORD PTR [ebp-0x24],eax
 804c8b3:	8b 45 ec             	mov    eax,DWORD PTR [ebp-0x14]
 804c8b6:	89 45 f4             	mov    DWORD PTR [ebp-0xc],eax
 804c8b9:	83 7d dc 0f          	cmp    DWORD PTR [ebp-0x24],0xf
 804c8bd:	0f 86 0d 01 00 00    	jbe    804c9d0 <internal_realloc+0x1ce>
 804c8c3:	8b 45 e0             	mov    eax,DWORD PTR [ebp-0x20]
 804c8c6:	8b 55 f4             	mov    edx,DWORD PTR [ebp-0xc]
 804c8c9:	01 d0                	add    eax,edx
 804c8cb:	89 45 d8             	mov    DWORD PTR [ebp-0x28],eax
 804c8ce:	8b 45 f4             	mov    eax,DWORD PTR [ebp-0xc]
 804c8d1:	8b 40 04             	mov    eax,DWORD PTR [eax+0x4]
 804c8d4:	83 e0 01             	and    eax,0x1
 804c8d7:	0b 45 e0             	or     eax,DWORD PTR [ebp-0x20]
 804c8da:	89 c2                	mov    edx,eax
 804c8dc:	83 ca 02             	or     edx,0x2
 804c8df:	8b 45 f4             	mov    eax,DWORD PTR [ebp-0xc]
 804c8e2:	89 50 04             	mov    DWORD PTR [eax+0x4],edx
 804c8e5:	8b 45 e0             	mov    eax,DWORD PTR [ebp-0x20]
 804c8e8:	8b 55 f4             	mov    edx,DWORD PTR [ebp-0xc]
 804c8eb:	01 d0                	add    eax,edx
 804c8ed:	8b 55 e0             	mov    edx,DWORD PTR [ebp-0x20]
 804c8f0:	8b 4d f4             	mov    ecx,DWORD PTR [ebp-0xc]
 804c8f3:	01 ca                	add    edx,ecx
 804c8f5:	8b 52 04             	mov    edx,DWORD PTR [edx+0x4]
 804c8f8:	83 ca 01             	or     edx,0x1
 804c8fb:	89 50 04             	mov    DWORD PTR [eax+0x4],edx
 804c8fe:	8b 45 dc             	mov    eax,DWORD PTR [ebp-0x24]
 804c901:	89 c2                	mov    edx,eax
 804c903:	83 ca 03             	or     edx,0x3
 804c906:	8b 45 d8             	mov    eax,DWORD PTR [ebp-0x28]
 804c909:	89 50 04             	mov    DWORD PTR [eax+0x4],edx
 804c90c:	8b 45 dc             	mov    eax,DWORD PTR [ebp-0x24]
 804c90f:	8b 55 d8             	mov    edx,DWORD PTR [ebp-0x28]
 804c912:	01 d0                	add    eax,edx
 804c914:	8b 55 dc             	mov    edx,DWORD PTR [ebp-0x24]
 804c917:	8b 4d d8             	mov    ecx,DWORD PTR [ebp-0x28]
 804c91a:	01 ca                	add    edx,ecx
 804c91c:	8b 52 04             	mov    edx,DWORD PTR [edx+0x4]
 804c91f:	83 ca 01             	or     edx,0x1
 804c922:	89 50 04             	mov    DWORD PTR [eax+0x4],edx
 804c925:	8b 45 d8             	mov    eax,DWORD PTR [ebp-0x28]
 804c928:	83 c0 08             	add    eax,0x8
 804c92b:	89 45 f0             	mov    DWORD PTR [ebp-0x10],eax
 804c92e:	e9 9d 00 00 00       	jmp    804c9d0 <internal_realloc+0x1ce>
 804c933:	8b 45 08             	mov    eax,DWORD PTR [ebp+0x8]
 804c936:	8b 40 18             	mov    eax,DWORD PTR [eax+0x18]
 804c939:	3b 45 e4             	cmp    eax,DWORD PTR [ebp-0x1c]
 804c93c:	0f 85 8e 00 00 00    	jne    804c9d0 <internal_realloc+0x1ce>
 804c942:	8b 45 08             	mov    eax,DWORD PTR [ebp+0x8]
 804c945:	8b 50 0c             	mov    edx,DWORD PTR [eax+0xc]
 804c948:	8b 45 e8             	mov    eax,DWORD PTR [ebp-0x18]
 804c94b:	01 d0                	add    eax,edx
 804c94d:	3b 45 e0             	cmp    eax,DWORD PTR [ebp-0x20]
 804c950:	76 7e                	jbe    804c9d0 <internal_realloc+0x1ce>
 804c952:	8b 45 08             	mov    eax,DWORD PTR [ebp+0x8]
 804c955:	8b 50 0c             	mov    edx,DWORD PTR [eax+0xc]
 804c958:	8b 45 e8             	mov    eax,DWORD PTR [ebp-0x18]
 804c95b:	01 d0                	add    eax,edx
 804c95d:	89 45 d4             	mov    DWORD PTR [ebp-0x2c],eax
 804c960:	8b 45 e0             	mov    eax,DWORD PTR [ebp-0x20]
 804c963:	8b 55 d4             	mov    edx,DWORD PTR [ebp-0x2c]
 804c966:	89 d1                	mov    ecx,edx
 804c968:	29 c1                	sub    ecx,eax
 804c96a:	89 c8                	mov    eax,ecx
 804c96c:	89 45 d0             	mov    DWORD PTR [ebp-0x30],eax
 804c96f:	8b 45 e0             	mov    eax,DWORD PTR [ebp-0x20]
 804c972:	8b 55 ec             	mov    edx,DWORD PTR [ebp-0x14]
 804c975:	01 d0                	add    eax,edx
 804c977:	89 45 cc             	mov    DWORD PTR [ebp-0x34],eax
 804c97a:	8b 45 ec             	mov    eax,DWORD PTR [ebp-0x14]
 804c97d:	8b 40 04             	mov    eax,DWORD PTR [eax+0x4]
 804c980:	83 e0 01             	and    eax,0x1
 804c983:	0b 45 e0             	or     eax,DWORD PTR [ebp-0x20]
 804c986:	89 c2                	mov    edx,eax
 804c988:	83 ca 02             	or     edx,0x2
 804c98b:	8b 45 ec             	mov    eax,DWORD PTR [ebp-0x14]
 804c98e:	89 50 04             	mov    DWORD PTR [eax+0x4],edx
 804c991:	8b 45 e0             	mov    eax,DWORD PTR [ebp-0x20]
 804c994:	8b 55 ec             	mov    edx,DWORD PTR [ebp-0x14]
 804c997:	01 d0                	add    eax,edx
 804c999:	8b 55 e0             	mov    edx,DWORD PTR [ebp-0x20]
 804c99c:	8b 4d ec             	mov    ecx,DWORD PTR [ebp-0x14]
 804c99f:	01 ca                	add    edx,ecx
 804c9a1:	8b 52 04             	mov    edx,DWORD PTR [edx+0x4]
 804c9a4:	83 ca 01             	or     edx,0x1
 804c9a7:	89 50 04             	mov    DWORD PTR [eax+0x4],edx
 804c9aa:	8b 45 d0             	mov    eax,DWORD PTR [ebp-0x30]
 804c9ad:	89 c2                	mov    edx,eax
 804c9af:	83 ca 01             	or     edx,0x1
 804c9b2:	8b 45 cc             	mov    eax,DWORD PTR [ebp-0x34]
 804c9b5:	89 50 04             	mov    DWORD PTR [eax+0x4],edx
 804c9b8:	8b 45 08             	mov    eax,DWORD PTR [ebp+0x8]
 804c9bb:	8b 55 cc             	mov    edx,DWORD PTR [ebp-0x34]
 804c9be:	89 50 18             	mov    DWORD PTR [eax+0x18],edx
 804c9c1:	8b 45 08             	mov    eax,DWORD PTR [ebp+0x8]
 804c9c4:	8b 55 d0             	mov    edx,DWORD PTR [ebp-0x30]
 804c9c7:	89 50 0c             	mov    DWORD PTR [eax+0xc],edx
 804c9ca:	8b 45 ec             	mov    eax,DWORD PTR [ebp-0x14]
 804c9cd:	89 45 f4             	mov    DWORD PTR [ebp-0xc],eax
 804c9d0:	83 7d f4 00          	cmp    DWORD PTR [ebp-0xc],0x0
 804c9d4:	74 19                	je     804c9ef <internal_realloc+0x1ed>
 804c9d6:	83 7d f0 00          	cmp    DWORD PTR [ebp-0x10],0x0
 804c9da:	74 0b                	je     804c9e7 <internal_realloc+0x1e5>
 804c9dc:	8b 45 f0             	mov    eax,DWORD PTR [ebp-0x10]
 804c9df:	89 04 24             	mov    DWORD PTR [esp],eax
 804c9e2:	e8 7b 0a 00 00       	call   804d462 <free>
 804c9e7:	8b 45 f4             	mov    eax,DWORD PTR [ebp-0xc]
 804c9ea:	83 c0 08             	add    eax,0x8
 804c9ed:	eb 69                	jmp    804ca58 <internal_realloc+0x256>
 804c9ef:	8b 45 10             	mov    eax,DWORD PTR [ebp+0x10]
 804c9f2:	89 04 24             	mov    DWORD PTR [esp],eax
 804c9f5:	e8 b5 05 00 00       	call   804cfaf <malloc>
 804c9fa:	89 45 c8             	mov    DWORD PTR [ebp-0x38],eax
 804c9fd:	83 7d c8 00          	cmp    DWORD PTR [ebp-0x38],0x0
 804ca01:	74 52                	je     804ca55 <internal_realloc+0x253>
 804ca03:	8b 45 ec             	mov    eax,DWORD PTR [ebp-0x14]
 804ca06:	8b 40 04             	mov    eax,DWORD PTR [eax+0x4]
 804ca09:	83 e0 03             	and    eax,0x3
 804ca0c:	85 c0                	test   eax,eax
 804ca0e:	75 07                	jne    804ca17 <internal_realloc+0x215>
 804ca10:	b8 08 00 00 00       	mov    eax,0x8
 804ca15:	eb 05                	jmp    804ca1c <internal_realloc+0x21a>
 804ca17:	b8 04 00 00 00       	mov    eax,0x4
 804ca1c:	8b 55 e8             	mov    edx,DWORD PTR [ebp-0x18]
 804ca1f:	89 d1                	mov    ecx,edx
 804ca21:	29 c1                	sub    ecx,eax
 804ca23:	89 c8                	mov    eax,ecx
 804ca25:	89 45 c4             	mov    DWORD PTR [ebp-0x3c],eax
 804ca28:	8b 55 c4             	mov    edx,DWORD PTR [ebp-0x3c]
 804ca2b:	8b 45 10             	mov    eax,DWORD PTR [ebp+0x10]
 804ca2e:	39 d0                	cmp    eax,edx
 804ca30:	76 02                	jbe    804ca34 <internal_realloc+0x232>
 804ca32:	89 d0                	mov    eax,edx
 804ca34:	89 44 24 08          	mov    DWORD PTR [esp+0x8],eax
 804ca38:	8b 45 0c             	mov    eax,DWORD PTR [ebp+0xc]
 804ca3b:	89 44 24 04          	mov    DWORD PTR [esp+0x4],eax
 804ca3f:	8b 45 c8             	mov    eax,DWORD PTR [ebp-0x38]
 804ca42:	89 04 24             	mov    DWORD PTR [esp],eax
 804ca45:	e8 46 bf ff ff       	call   8048990 <memcpy@plt>
 804ca4a:	8b 45 0c             	mov    eax,DWORD PTR [ebp+0xc]
 804ca4d:	89 04 24             	mov    DWORD PTR [esp],eax
 804ca50:	e8 0d 0a 00 00       	call   804d462 <free>
 804ca55:	8b 45 c8             	mov    eax,DWORD PTR [ebp-0x38]
 804ca58:	c9                   	leave  
 804ca59:	c3                   	ret    

0804ca5a <internal_memalign>:
 804ca5a:	55                   	push   ebp
 804ca5b:	89 e5                	mov    ebp,esp
 804ca5d:	83 ec 58             	sub    esp,0x58
 804ca60:	83 7d 0c 08          	cmp    DWORD PTR [ebp+0xc],0x8
 804ca64:	77 10                	ja     804ca76 <internal_memalign+0x1c>
 804ca66:	8b 45 10             	mov    eax,DWORD PTR [ebp+0x10]
 804ca69:	89 04 24             	mov    DWORD PTR [esp],eax
 804ca6c:	e8 3e 05 00 00       	call   804cfaf <malloc>
 804ca71:	e9 97 02 00 00       	jmp    804cd0d <internal_memalign+0x2b3>
 804ca76:	83 7d 0c 0f          	cmp    DWORD PTR [ebp+0xc],0xf
 804ca7a:	77 07                	ja     804ca83 <internal_memalign+0x29>
 804ca7c:	c7 45 0c 10 00 00 00 	mov    DWORD PTR [ebp+0xc],0x10
 804ca83:	8b 45 0c             	mov    eax,DWORD PTR [ebp+0xc]
 804ca86:	83 e8 01             	sub    eax,0x1
 804ca89:	23 45 0c             	and    eax,DWORD PTR [ebp+0xc]
 804ca8c:	85 c0                	test   eax,eax
 804ca8e:	74 1a                	je     804caaa <internal_memalign+0x50>
 804ca90:	c7 45 f4 10 00 00 00 	mov    DWORD PTR [ebp-0xc],0x10
 804ca97:	eb 03                	jmp    804ca9c <internal_memalign+0x42>
 804ca99:	d1 65 f4             	shl    DWORD PTR [ebp-0xc],1
 804ca9c:	8b 45 f4             	mov    eax,DWORD PTR [ebp-0xc]
 804ca9f:	3b 45 0c             	cmp    eax,DWORD PTR [ebp+0xc]
 804caa2:	72 f5                	jb     804ca99 <internal_memalign+0x3f>
 804caa4:	8b 45 f4             	mov    eax,DWORD PTR [ebp-0xc]
 804caa7:	89 45 0c             	mov    DWORD PTR [ebp+0xc],eax
 804caaa:	b8 c0 ff ff ff       	mov    eax,0xffffffc0
 804caaf:	2b 45 0c             	sub    eax,DWORD PTR [ebp+0xc]
 804cab2:	3b 45 10             	cmp    eax,DWORD PTR [ebp+0x10]
 804cab5:	77 1a                	ja     804cad1 <internal_memalign+0x77>
 804cab7:	83 7d 08 00          	cmp    DWORD PTR [ebp+0x8],0x0
 804cabb:	0f 84 47 02 00 00    	je     804cd08 <internal_memalign+0x2ae>
 804cac1:	e8 fa bf ff ff       	call   8048ac0 <__errno_location@plt>
 804cac6:	c7 00 0c 00 00 00    	mov    DWORD PTR [eax],0xc
 804cacc:	e9 37 02 00 00       	jmp    804cd08 <internal_memalign+0x2ae>
 804cad1:	83 7d 10 0a          	cmp    DWORD PTR [ebp+0x10],0xa
 804cad5:	76 0b                	jbe    804cae2 <internal_memalign+0x88>
 804cad7:	8b 45 10             	mov    eax,DWORD PTR [ebp+0x10]
 804cada:	83 c0 0b             	add    eax,0xb
 804cadd:	83 e0 f8             	and    eax,0xfffffff8
 804cae0:	eb 05                	jmp    804cae7 <internal_memalign+0x8d>
 804cae2:	b8 10 00 00 00       	mov    eax,0x10
 804cae7:	89 45 e4             	mov    DWORD PTR [ebp-0x1c],eax
 804caea:	8b 45 0c             	mov    eax,DWORD PTR [ebp+0xc]
 804caed:	8b 55 e4             	mov    edx,DWORD PTR [ebp-0x1c]
 804caf0:	01 d0                	add    eax,edx
 804caf2:	83 c0 0c             	add    eax,0xc
 804caf5:	89 45 e0             	mov    DWORD PTR [ebp-0x20],eax
 804caf8:	8b 45 e0             	mov    eax,DWORD PTR [ebp-0x20]
 804cafb:	89 04 24             	mov    DWORD PTR [esp],eax
 804cafe:	e8 ac 04 00 00       	call   804cfaf <malloc>
 804cb03:	89 45 dc             	mov    DWORD PTR [ebp-0x24],eax
 804cb06:	83 7d dc 00          	cmp    DWORD PTR [ebp-0x24],0x0
 804cb0a:	0f 84 f8 01 00 00    	je     804cd08 <internal_memalign+0x2ae>
 804cb10:	c7 45 f0 00 00 00 00 	mov    DWORD PTR [ebp-0x10],0x0
 804cb17:	c7 45 ec 00 00 00 00 	mov    DWORD PTR [ebp-0x14],0x0
 804cb1e:	8b 45 dc             	mov    eax,DWORD PTR [ebp-0x24]
 804cb21:	83 e8 08             	sub    eax,0x8
 804cb24:	89 45 e8             	mov    DWORD PTR [ebp-0x18],eax
 804cb27:	8b 45 dc             	mov    eax,DWORD PTR [ebp-0x24]
 804cb2a:	ba 00 00 00 00       	mov    edx,0x0
 804cb2f:	f7 75 0c             	div    DWORD PTR [ebp+0xc]
 804cb32:	89 d0                	mov    eax,edx
 804cb34:	85 c0                	test   eax,eax
 804cb36:	0f 84 f3 00 00 00    	je     804cc2f <internal_memalign+0x1d5>
 804cb3c:	8b 45 0c             	mov    eax,DWORD PTR [ebp+0xc]
 804cb3f:	8d 50 ff             	lea    edx,[eax-0x1]
 804cb42:	8b 45 dc             	mov    eax,DWORD PTR [ebp-0x24]
 804cb45:	01 d0                	add    eax,edx
 804cb47:	8b 55 0c             	mov    edx,DWORD PTR [ebp+0xc]
 804cb4a:	f7 da                	neg    edx
 804cb4c:	21 d0                	and    eax,edx
 804cb4e:	83 e8 08             	sub    eax,0x8
 804cb51:	89 45 d8             	mov    DWORD PTR [ebp-0x28],eax
 804cb54:	8b 55 d8             	mov    edx,DWORD PTR [ebp-0x28]
 804cb57:	8b 45 e8             	mov    eax,DWORD PTR [ebp-0x18]
 804cb5a:	89 d1                	mov    ecx,edx
 804cb5c:	29 c1                	sub    ecx,eax
 804cb5e:	89 c8                	mov    eax,ecx
 804cb60:	83 f8 0f             	cmp    eax,0xf
 804cb63:	77 0a                	ja     804cb6f <internal_memalign+0x115>
 804cb65:	8b 45 0c             	mov    eax,DWORD PTR [ebp+0xc]
 804cb68:	8b 55 d8             	mov    edx,DWORD PTR [ebp-0x28]
 804cb6b:	01 d0                	add    eax,edx
 804cb6d:	eb 03                	jmp    804cb72 <internal_memalign+0x118>
 804cb6f:	8b 45 d8             	mov    eax,DWORD PTR [ebp-0x28]
 804cb72:	89 45 d4             	mov    DWORD PTR [ebp-0x2c],eax
 804cb75:	8b 45 d4             	mov    eax,DWORD PTR [ebp-0x2c]
 804cb78:	89 45 d0             	mov    DWORD PTR [ebp-0x30],eax
 804cb7b:	8b 55 d4             	mov    edx,DWORD PTR [ebp-0x2c]
 804cb7e:	8b 45 e8             	mov    eax,DWORD PTR [ebp-0x18]
 804cb81:	89 d1                	mov    ecx,edx
 804cb83:	29 c1                	sub    ecx,eax
 804cb85:	89 c8                	mov    eax,ecx
 804cb87:	89 45 cc             	mov    DWORD PTR [ebp-0x34],eax
 804cb8a:	8b 45 e8             	mov    eax,DWORD PTR [ebp-0x18]
 804cb8d:	8b 40 04             	mov    eax,DWORD PTR [eax+0x4]
 804cb90:	83 e0 f8             	and    eax,0xfffffff8
 804cb93:	2b 45 cc             	sub    eax,DWORD PTR [ebp-0x34]
 804cb96:	89 45 c8             	mov    DWORD PTR [ebp-0x38],eax
 804cb99:	8b 45 e8             	mov    eax,DWORD PTR [ebp-0x18]
 804cb9c:	8b 40 04             	mov    eax,DWORD PTR [eax+0x4]
 804cb9f:	83 e0 03             	and    eax,0x3
 804cba2:	85 c0                	test   eax,eax
 804cba4:	75 1a                	jne    804cbc0 <internal_memalign+0x166>
 804cba6:	8b 45 e8             	mov    eax,DWORD PTR [ebp-0x18]
 804cba9:	8b 10                	mov    edx,DWORD PTR [eax]
 804cbab:	8b 45 cc             	mov    eax,DWORD PTR [ebp-0x34]
 804cbae:	01 c2                	add    edx,eax
 804cbb0:	8b 45 d0             	mov    eax,DWORD PTR [ebp-0x30]
 804cbb3:	89 10                	mov    DWORD PTR [eax],edx
 804cbb5:	8b 45 d0             	mov    eax,DWORD PTR [ebp-0x30]
 804cbb8:	8b 55 c8             	mov    edx,DWORD PTR [ebp-0x38]
 804cbbb:	89 50 04             	mov    DWORD PTR [eax+0x4],edx
 804cbbe:	eb 69                	jmp    804cc29 <internal_memalign+0x1cf>
 804cbc0:	8b 45 d0             	mov    eax,DWORD PTR [ebp-0x30]
 804cbc3:	8b 40 04             	mov    eax,DWORD PTR [eax+0x4]
 804cbc6:	83 e0 01             	and    eax,0x1
 804cbc9:	0b 45 c8             	or     eax,DWORD PTR [ebp-0x38]
 804cbcc:	89 c2                	mov    edx,eax
 804cbce:	83 ca 02             	or     edx,0x2
 804cbd1:	8b 45 d0             	mov    eax,DWORD PTR [ebp-0x30]
 804cbd4:	89 50 04             	mov    DWORD PTR [eax+0x4],edx
 804cbd7:	8b 45 c8             	mov    eax,DWORD PTR [ebp-0x38]
 804cbda:	8b 55 d0             	mov    edx,DWORD PTR [ebp-0x30]
 804cbdd:	01 d0                	add    eax,edx
 804cbdf:	8b 55 c8             	mov    edx,DWORD PTR [ebp-0x38]
 804cbe2:	8b 4d d0             	mov    ecx,DWORD PTR [ebp-0x30]
 804cbe5:	01 ca                	add    edx,ecx
 804cbe7:	8b 52 04             	mov    edx,DWORD PTR [edx+0x4]
 804cbea:	83 ca 01             	or     edx,0x1
 804cbed:	89 50 04             	mov    DWORD PTR [eax+0x4],edx
 804cbf0:	8b 45 e8             	mov    eax,DWORD PTR [ebp-0x18]
 804cbf3:	8b 40 04             	mov    eax,DWORD PTR [eax+0x4]
 804cbf6:	83 e0 01             	and    eax,0x1
 804cbf9:	0b 45 cc             	or     eax,DWORD PTR [ebp-0x34]
 804cbfc:	89 c2                	mov    edx,eax
 804cbfe:	83 ca 02             	or     edx,0x2
 804cc01:	8b 45 e8             	mov    eax,DWORD PTR [ebp-0x18]
 804cc04:	89 50 04             	mov    DWORD PTR [eax+0x4],edx
 804cc07:	8b 45 cc             	mov    eax,DWORD PTR [ebp-0x34]
 804cc0a:	8b 55 e8             	mov    edx,DWORD PTR [ebp-0x18]
 804cc0d:	01 d0                	add    eax,edx
 804cc0f:	8b 55 cc             	mov    edx,DWORD PTR [ebp-0x34]
 804cc12:	8b 4d e8             	mov    ecx,DWORD PTR [ebp-0x18]
 804cc15:	01 ca                	add    edx,ecx
 804cc17:	8b 52 04             	mov    edx,DWORD PTR [edx+0x4]
 804cc1a:	83 ca 01             	or     edx,0x1
 804cc1d:	89 50 04             	mov    DWORD PTR [eax+0x4],edx
 804cc20:	8b 45 e8             	mov    eax,DWORD PTR [ebp-0x18]
 804cc23:	83 c0 08             	add    eax,0x8
 804cc26:	89 45 f0             	mov    DWORD PTR [ebp-0x10],eax
 804cc29:	8b 45 d0             	mov    eax,DWORD PTR [ebp-0x30]
 804cc2c:	89 45 e8             	mov    DWORD PTR [ebp-0x18],eax
 804cc2f:	8b 45 e8             	mov    eax,DWORD PTR [ebp-0x18]
 804cc32:	8b 40 04             	mov    eax,DWORD PTR [eax+0x4]
 804cc35:	83 e0 03             	and    eax,0x3
 804cc38:	85 c0                	test   eax,eax
 804cc3a:	0f 84 9e 00 00 00    	je     804ccde <internal_memalign+0x284>
 804cc40:	8b 45 e8             	mov    eax,DWORD PTR [ebp-0x18]
 804cc43:	8b 40 04             	mov    eax,DWORD PTR [eax+0x4]
 804cc46:	83 e0 f8             	and    eax,0xfffffff8
 804cc49:	89 45 c4             	mov    DWORD PTR [ebp-0x3c],eax
 804cc4c:	8b 45 e4             	mov    eax,DWORD PTR [ebp-0x1c]
 804cc4f:	83 c0 10             	add    eax,0x10
 804cc52:	3b 45 c4             	cmp    eax,DWORD PTR [ebp-0x3c]
 804cc55:	0f 83 83 00 00 00    	jae    804ccde <internal_memalign+0x284>
 804cc5b:	8b 45 e4             	mov    eax,DWORD PTR [ebp-0x1c]
 804cc5e:	8b 55 c4             	mov    edx,DWORD PTR [ebp-0x3c]
 804cc61:	89 d1                	mov    ecx,edx
 804cc63:	29 c1                	sub    ecx,eax
 804cc65:	89 c8                	mov    eax,ecx
 804cc67:	89 45 c0             	mov    DWORD PTR [ebp-0x40],eax
 804cc6a:	8b 45 e4             	mov    eax,DWORD PTR [ebp-0x1c]
 804cc6d:	8b 55 e8             	mov    edx,DWORD PTR [ebp-0x18]
 804cc70:	01 d0                	add    eax,edx
 804cc72:	89 45 bc             	mov    DWORD PTR [ebp-0x44],eax
 804cc75:	8b 45 e8             	mov    eax,DWORD PTR [ebp-0x18]
 804cc78:	8b 40 04             	mov    eax,DWORD PTR [eax+0x4]
 804cc7b:	83 e0 01             	and    eax,0x1
 804cc7e:	0b 45 e4             	or     eax,DWORD PTR [ebp-0x1c]
 804cc81:	89 c2                	mov    edx,eax
 804cc83:	83 ca 02             	or     edx,0x2
 804cc86:	8b 45 e8             	mov    eax,DWORD PTR [ebp-0x18]
 804cc89:	89 50 04             	mov    DWORD PTR [eax+0x4],edx
 804cc8c:	8b 45 e4             	mov    eax,DWORD PTR [ebp-0x1c]
 804cc8f:	8b 55 e8             	mov    edx,DWORD PTR [ebp-0x18]
 804cc92:	01 d0                	add    eax,edx
 804cc94:	8b 55 e4             	mov    edx,DWORD PTR [ebp-0x1c]
 804cc97:	8b 4d e8             	mov    ecx,DWORD PTR [ebp-0x18]
 804cc9a:	01 ca                	add    edx,ecx
 804cc9c:	8b 52 04             	mov    edx,DWORD PTR [edx+0x4]
 804cc9f:	83 ca 01             	or     edx,0x1
 804cca2:	89 50 04             	mov    DWORD PTR [eax+0x4],edx
 804cca5:	8b 45 bc             	mov    eax,DWORD PTR [ebp-0x44]
 804cca8:	8b 40 04             	mov    eax,DWORD PTR [eax+0x4]
 804ccab:	83 e0 01             	and    eax,0x1
 804ccae:	0b 45 c0             	or     eax,DWORD PTR [ebp-0x40]
 804ccb1:	89 c2                	mov    edx,eax
 804ccb3:	83 ca 02             	or     edx,0x2
 804ccb6:	8b 45 bc             	mov    eax,DWORD PTR [ebp-0x44]
 804ccb9:	89 50 04             	mov    DWORD PTR [eax+0x4],edx
 804ccbc:	8b 45 c0             	mov    eax,DWORD PTR [ebp-0x40]
 804ccbf:	8b 55 bc             	mov    edx,DWORD PTR [ebp-0x44]
 804ccc2:	01 d0                	add    eax,edx
 804ccc4:	8b 55 c0             	mov    edx,DWORD PTR [ebp-0x40]
 804ccc7:	8b 4d bc             	mov    ecx,DWORD PTR [ebp-0x44]
 804ccca:	01 ca                	add    edx,ecx
 804cccc:	8b 52 04             	mov    edx,DWORD PTR [edx+0x4]
 804cccf:	83 ca 01             	or     edx,0x1
 804ccd2:	89 50 04             	mov    DWORD PTR [eax+0x4],edx
 804ccd5:	8b 45 bc             	mov    eax,DWORD PTR [ebp-0x44]
 804ccd8:	83 c0 08             	add    eax,0x8
 804ccdb:	89 45 ec             	mov    DWORD PTR [ebp-0x14],eax
 804ccde:	83 7d f0 00          	cmp    DWORD PTR [ebp-0x10],0x0
 804cce2:	74 0b                	je     804ccef <internal_memalign+0x295>
 804cce4:	8b 45 f0             	mov    eax,DWORD PTR [ebp-0x10]
 804cce7:	89 04 24             	mov    DWORD PTR [esp],eax
 804ccea:	e8 73 07 00 00       	call   804d462 <free>
 804ccef:	83 7d ec 00          	cmp    DWORD PTR [ebp-0x14],0x0
 804ccf3:	74 0b                	je     804cd00 <internal_memalign+0x2a6>
 804ccf5:	8b 45 ec             	mov    eax,DWORD PTR [ebp-0x14]
 804ccf8:	89 04 24             	mov    DWORD PTR [esp],eax
 804ccfb:	e8 62 07 00 00       	call   804d462 <free>
 804cd00:	8b 45 e8             	mov    eax,DWORD PTR [ebp-0x18]
 804cd03:	83 c0 08             	add    eax,0x8
 804cd06:	eb 05                	jmp    804cd0d <internal_memalign+0x2b3>
 804cd08:	b8 00 00 00 00       	mov    eax,0x0
 804cd0d:	c9                   	leave  
 804cd0e:	c3                   	ret    

0804cd0f <ialloc>:
 804cd0f:	55                   	push   ebp
 804cd10:	89 e5                	mov    ebp,esp
 804cd12:	83 ec 48             	sub    esp,0x48
 804cd15:	a1 60 0b 05 08       	mov    eax,ds:0x8050b60
 804cd1a:	85 c0                	test   eax,eax
 804cd1c:	75 07                	jne    804cd25 <ialloc+0x16>
 804cd1e:	e8 b9 d1 ff ff       	call   8049edc <init_mparams>
 804cd23:	85 c0                	test   eax,eax
 804cd25:	83 7d 18 00          	cmp    DWORD PTR [ebp+0x18],0x0
 804cd29:	74 1d                	je     804cd48 <ialloc+0x39>
 804cd2b:	83 7d 0c 00          	cmp    DWORD PTR [ebp+0xc],0x0
 804cd2f:	75 08                	jne    804cd39 <ialloc+0x2a>
 804cd31:	8b 45 18             	mov    eax,DWORD PTR [ebp+0x18]
 804cd34:	e9 74 02 00 00       	jmp    804cfad <ialloc+0x29e>
 804cd39:	8b 45 18             	mov    eax,DWORD PTR [ebp+0x18]
 804cd3c:	89 45 e0             	mov    DWORD PTR [ebp-0x20],eax
 804cd3f:	c7 45 ec 00 00 00 00 	mov    DWORD PTR [ebp-0x14],0x0
 804cd46:	eb 42                	jmp    804cd8a <ialloc+0x7b>
 804cd48:	83 7d 0c 00          	cmp    DWORD PTR [ebp+0xc],0x0
 804cd4c:	75 11                	jne    804cd5f <ialloc+0x50>
 804cd4e:	c7 04 24 00 00 00 00 	mov    DWORD PTR [esp],0x0
 804cd55:	e8 55 02 00 00       	call   804cfaf <malloc>
 804cd5a:	e9 4e 02 00 00       	jmp    804cfad <ialloc+0x29e>
 804cd5f:	c7 45 e0 00 00 00 00 	mov    DWORD PTR [ebp-0x20],0x0
 804cd66:	8b 45 0c             	mov    eax,DWORD PTR [ebp+0xc]
 804cd69:	c1 e0 02             	shl    eax,0x2
 804cd6c:	83 f8 0a             	cmp    eax,0xa
 804cd6f:	76 11                	jbe    804cd82 <ialloc+0x73>
 804cd71:	8b 45 0c             	mov    eax,DWORD PTR [ebp+0xc]
 804cd74:	83 c0 01             	add    eax,0x1
 804cd77:	c1 e0 02             	shl    eax,0x2
 804cd7a:	83 c0 07             	add    eax,0x7
 804cd7d:	83 e0 f8             	and    eax,0xfffffff8
 804cd80:	eb 05                	jmp    804cd87 <ialloc+0x78>
 804cd82:	b8 10 00 00 00       	mov    eax,0x10
 804cd87:	89 45 ec             	mov    DWORD PTR [ebp-0x14],eax
 804cd8a:	8b 45 14             	mov    eax,DWORD PTR [ebp+0x14]
 804cd8d:	83 e0 01             	and    eax,0x1
 804cd90:	85 c0                	test   eax,eax
 804cd92:	74 2b                	je     804cdbf <ialloc+0xb0>
 804cd94:	8b 45 10             	mov    eax,DWORD PTR [ebp+0x10]
 804cd97:	8b 00                	mov    eax,DWORD PTR [eax]
 804cd99:	83 f8 0a             	cmp    eax,0xa
 804cd9c:	76 0d                	jbe    804cdab <ialloc+0x9c>
 804cd9e:	8b 45 10             	mov    eax,DWORD PTR [ebp+0x10]
 804cda1:	8b 00                	mov    eax,DWORD PTR [eax]
 804cda3:	83 c0 0b             	add    eax,0xb
 804cda6:	83 e0 f8             	and    eax,0xfffffff8
 804cda9:	eb 05                	jmp    804cdb0 <ialloc+0xa1>
 804cdab:	b8 10 00 00 00       	mov    eax,0x10
 804cdb0:	89 45 f4             	mov    DWORD PTR [ebp-0xc],eax
 804cdb3:	8b 45 0c             	mov    eax,DWORD PTR [ebp+0xc]
 804cdb6:	0f af 45 f4          	imul   eax,DWORD PTR [ebp-0xc]
 804cdba:	89 45 f0             	mov    DWORD PTR [ebp-0x10],eax
 804cdbd:	eb 5a                	jmp    804ce19 <ialloc+0x10a>
 804cdbf:	c7 45 f4 00 00 00 00 	mov    DWORD PTR [ebp-0xc],0x0
 804cdc6:	c7 45 f0 00 00 00 00 	mov    DWORD PTR [ebp-0x10],0x0
 804cdcd:	c7 45 d8 00 00 00 00 	mov    DWORD PTR [ebp-0x28],0x0
 804cdd4:	eb 3b                	jmp    804ce11 <ialloc+0x102>
 804cdd6:	8b 45 d8             	mov    eax,DWORD PTR [ebp-0x28]
 804cdd9:	8d 14 85 00 00 00 00 	lea    edx,[eax*4+0x0]
 804cde0:	8b 45 10             	mov    eax,DWORD PTR [ebp+0x10]
 804cde3:	01 d0                	add    eax,edx
 804cde5:	8b 00                	mov    eax,DWORD PTR [eax]
 804cde7:	83 f8 0a             	cmp    eax,0xa
 804cdea:	76 19                	jbe    804ce05 <ialloc+0xf6>
 804cdec:	8b 45 d8             	mov    eax,DWORD PTR [ebp-0x28]
 804cdef:	8d 14 85 00 00 00 00 	lea    edx,[eax*4+0x0]
 804cdf6:	8b 45 10             	mov    eax,DWORD PTR [ebp+0x10]
 804cdf9:	01 d0                	add    eax,edx
 804cdfb:	8b 00                	mov    eax,DWORD PTR [eax]
 804cdfd:	83 c0 0b             	add    eax,0xb
 804ce00:	83 e0 f8             	and    eax,0xfffffff8
 804ce03:	eb 05                	jmp    804ce0a <ialloc+0xfb>
 804ce05:	b8 10 00 00 00       	mov    eax,0x10
 804ce0a:	01 45 f0             	add    DWORD PTR [ebp-0x10],eax
 804ce0d:	83 45 d8 01          	add    DWORD PTR [ebp-0x28],0x1
 804ce11:	8b 45 d8             	mov    eax,DWORD PTR [ebp-0x28]
 804ce14:	3b 45 0c             	cmp    eax,DWORD PTR [ebp+0xc]
 804ce17:	75 bd                	jne    804cdd6 <ialloc+0xc7>
 804ce19:	8b 45 ec             	mov    eax,DWORD PTR [ebp-0x14]
 804ce1c:	8b 55 f0             	mov    edx,DWORD PTR [ebp-0x10]
 804ce1f:	01 d0                	add    eax,edx
 804ce21:	89 45 dc             	mov    DWORD PTR [ebp-0x24],eax
 804ce24:	8b 45 08             	mov    eax,DWORD PTR [ebp+0x8]
 804ce27:	8b 80 b8 01 00 00    	mov    eax,DWORD PTR [eax+0x1b8]
 804ce2d:	83 e0 01             	and    eax,0x1
 804ce30:	89 45 d4             	mov    DWORD PTR [ebp-0x2c],eax
 804ce33:	8b 45 08             	mov    eax,DWORD PTR [ebp+0x8]
 804ce36:	8b 80 b8 01 00 00    	mov    eax,DWORD PTR [eax+0x1b8]
 804ce3c:	89 c2                	mov    edx,eax
 804ce3e:	83 e2 fe             	and    edx,0xfffffffe
 804ce41:	8b 45 08             	mov    eax,DWORD PTR [ebp+0x8]
 804ce44:	89 90 b8 01 00 00    	mov    DWORD PTR [eax+0x1b8],edx
 804ce4a:	8b 45 dc             	mov    eax,DWORD PTR [ebp-0x24]
 804ce4d:	83 e8 04             	sub    eax,0x4
 804ce50:	89 04 24             	mov    DWORD PTR [esp],eax
 804ce53:	e8 57 01 00 00       	call   804cfaf <malloc>
 804ce58:	89 45 d0             	mov    DWORD PTR [ebp-0x30],eax
 804ce5b:	83 7d d4 00          	cmp    DWORD PTR [ebp-0x2c],0x0
 804ce5f:	74 17                	je     804ce78 <ialloc+0x169>
 804ce61:	8b 45 08             	mov    eax,DWORD PTR [ebp+0x8]
 804ce64:	8b 80 b8 01 00 00    	mov    eax,DWORD PTR [eax+0x1b8]
 804ce6a:	89 c2                	mov    edx,eax
 804ce6c:	83 ca 01             	or     edx,0x1
 804ce6f:	8b 45 08             	mov    eax,DWORD PTR [ebp+0x8]
 804ce72:	89 90 b8 01 00 00    	mov    DWORD PTR [eax+0x1b8],edx
 804ce78:	83 7d d0 00          	cmp    DWORD PTR [ebp-0x30],0x0
 804ce7c:	75 0a                	jne    804ce88 <ialloc+0x179>
 804ce7e:	b8 00 00 00 00       	mov    eax,0x0
 804ce83:	e9 25 01 00 00       	jmp    804cfad <ialloc+0x29e>
 804ce88:	8b 45 d0             	mov    eax,DWORD PTR [ebp-0x30]
 804ce8b:	83 e8 08             	sub    eax,0x8
 804ce8e:	89 45 e8             	mov    DWORD PTR [ebp-0x18],eax
 804ce91:	8b 45 e8             	mov    eax,DWORD PTR [ebp-0x18]
 804ce94:	8b 40 04             	mov    eax,DWORD PTR [eax+0x4]
 804ce97:	83 e0 f8             	and    eax,0xfffffff8
 804ce9a:	89 45 e4             	mov    DWORD PTR [ebp-0x1c],eax
 804ce9d:	8b 45 14             	mov    eax,DWORD PTR [ebp+0x14]
 804cea0:	83 e0 02             	and    eax,0x2
 804cea3:	85 c0                	test   eax,eax
 804cea5:	74 26                	je     804cecd <ialloc+0x1be>
 804cea7:	8b 45 ec             	mov    eax,DWORD PTR [ebp-0x14]
 804ceaa:	8b 55 e4             	mov    edx,DWORD PTR [ebp-0x1c]
 804cead:	89 d1                	mov    ecx,edx
 804ceaf:	29 c1                	sub    ecx,eax
 804ceb1:	89 c8                	mov    eax,ecx
 804ceb3:	83 e8 04             	sub    eax,0x4
 804ceb6:	89 44 24 08          	mov    DWORD PTR [esp+0x8],eax
 804ceba:	c7 44 24 04 00 00 00 	mov    DWORD PTR [esp+0x4],0x0
 804cec1:	00 
 804cec2:	8b 45 d0             	mov    eax,DWORD PTR [ebp-0x30]
 804cec5:	89 04 24             	mov    DWORD PTR [esp],eax
 804cec8:	e8 d3 bb ff ff       	call   8048aa0 <memset@plt>
 804cecd:	83 7d e0 00          	cmp    DWORD PTR [ebp-0x20],0x0
 804ced1:	75 37                	jne    804cf0a <ialloc+0x1fb>
 804ced3:	8b 45 f0             	mov    eax,DWORD PTR [ebp-0x10]
 804ced6:	8b 55 e8             	mov    edx,DWORD PTR [ebp-0x18]
 804ced9:	01 d0                	add    eax,edx
 804cedb:	89 45 cc             	mov    DWORD PTR [ebp-0x34],eax
 804cede:	8b 45 f0             	mov    eax,DWORD PTR [ebp-0x10]
 804cee1:	8b 55 e4             	mov    edx,DWORD PTR [ebp-0x1c]
 804cee4:	89 d1                	mov    ecx,edx
 804cee6:	29 c1                	sub    ecx,eax
 804cee8:	89 c8                	mov    eax,ecx
 804ceea:	89 45 c8             	mov    DWORD PTR [ebp-0x38],eax
 804ceed:	8b 45 cc             	mov    eax,DWORD PTR [ebp-0x34]
 804cef0:	83 c0 08             	add    eax,0x8
 804cef3:	89 45 e0             	mov    DWORD PTR [ebp-0x20],eax
 804cef6:	8b 45 c8             	mov    eax,DWORD PTR [ebp-0x38]
 804cef9:	89 c2                	mov    edx,eax
 804cefb:	83 ca 03             	or     edx,0x3
 804cefe:	8b 45 cc             	mov    eax,DWORD PTR [ebp-0x34]
 804cf01:	89 50 04             	mov    DWORD PTR [eax+0x4],edx
 804cf04:	8b 45 f0             	mov    eax,DWORD PTR [ebp-0x10]
 804cf07:	89 45 e4             	mov    DWORD PTR [ebp-0x1c],eax
 804cf0a:	c7 45 d8 00 00 00 00 	mov    DWORD PTR [ebp-0x28],0x0
 804cf11:	8b 45 d8             	mov    eax,DWORD PTR [ebp-0x28]
 804cf14:	8d 14 85 00 00 00 00 	lea    edx,[eax*4+0x0]
 804cf1b:	8b 45 e0             	mov    eax,DWORD PTR [ebp-0x20]
 804cf1e:	01 d0                	add    eax,edx
 804cf20:	8b 55 e8             	mov    edx,DWORD PTR [ebp-0x18]
 804cf23:	83 c2 08             	add    edx,0x8
 804cf26:	89 10                	mov    DWORD PTR [eax],edx
 804cf28:	8b 45 0c             	mov    eax,DWORD PTR [ebp+0xc]
 804cf2b:	83 e8 01             	sub    eax,0x1
 804cf2e:	3b 45 d8             	cmp    eax,DWORD PTR [ebp-0x28]
 804cf31:	74 68                	je     804cf9b <ialloc+0x28c>
 804cf33:	83 7d f4 00          	cmp    DWORD PTR [ebp-0xc],0x0
 804cf37:	74 08                	je     804cf41 <ialloc+0x232>
 804cf39:	8b 45 f4             	mov    eax,DWORD PTR [ebp-0xc]
 804cf3c:	89 45 dc             	mov    DWORD PTR [ebp-0x24],eax
 804cf3f:	eb 37                	jmp    804cf78 <ialloc+0x269>
 804cf41:	8b 45 d8             	mov    eax,DWORD PTR [ebp-0x28]
 804cf44:	8d 14 85 00 00 00 00 	lea    edx,[eax*4+0x0]
 804cf4b:	8b 45 10             	mov    eax,DWORD PTR [ebp+0x10]
 804cf4e:	01 d0                	add    eax,edx
 804cf50:	8b 00                	mov    eax,DWORD PTR [eax]
 804cf52:	83 f8 0a             	cmp    eax,0xa
 804cf55:	76 19                	jbe    804cf70 <ialloc+0x261>
 804cf57:	8b 45 d8             	mov    eax,DWORD PTR [ebp-0x28]
 804cf5a:	8d 14 85 00 00 00 00 	lea    edx,[eax*4+0x0]
 804cf61:	8b 45 10             	mov    eax,DWORD PTR [ebp+0x10]
 804cf64:	01 d0                	add    eax,edx
 804cf66:	8b 00                	mov    eax,DWORD PTR [eax]
 804cf68:	83 c0 0b             	add    eax,0xb
 804cf6b:	83 e0 f8             	and    eax,0xfffffff8
 804cf6e:	eb 05                	jmp    804cf75 <ialloc+0x266>
 804cf70:	b8 10 00 00 00       	mov    eax,0x10
 804cf75:	89 45 dc             	mov    DWORD PTR [ebp-0x24],eax
 804cf78:	8b 45 dc             	mov    eax,DWORD PTR [ebp-0x24]
 804cf7b:	29 45 e4             	sub    DWORD PTR [ebp-0x1c],eax
 804cf7e:	8b 45 dc             	mov    eax,DWORD PTR [ebp-0x24]
 804cf81:	89 c2                	mov    edx,eax
 804cf83:	83 ca 03             	or     edx,0x3
 804cf86:	8b 45 e8             	mov    eax,DWORD PTR [ebp-0x18]
 804cf89:	89 50 04             	mov    DWORD PTR [eax+0x4],edx
 804cf8c:	8b 45 dc             	mov    eax,DWORD PTR [ebp-0x24]
 804cf8f:	01 45 e8             	add    DWORD PTR [ebp-0x18],eax
 804cf92:	83 45 d8 01          	add    DWORD PTR [ebp-0x28],0x1
 804cf96:	e9 76 ff ff ff       	jmp    804cf11 <ialloc+0x202>
 804cf9b:	8b 45 e4             	mov    eax,DWORD PTR [ebp-0x1c]
 804cf9e:	89 c2                	mov    edx,eax
 804cfa0:	83 ca 03             	or     edx,0x3
 804cfa3:	8b 45 e8             	mov    eax,DWORD PTR [ebp-0x18]
 804cfa6:	89 50 04             	mov    DWORD PTR [eax+0x4],edx
 804cfa9:	90                   	nop
 804cfaa:	8b 45 e0             	mov    eax,DWORD PTR [ebp-0x20]
 804cfad:	c9                   	leave  
 804cfae:	c3                   	ret    

0804cfaf <malloc>:
 804cfaf:	55                   	push   ebp
 804cfb0:	89 e5                	mov    ebp,esp
 804cfb2:	57                   	push   edi
 804cfb3:	56                   	push   esi
 804cfb4:	53                   	push   ebx
 804cfb5:	81 ec 8c 00 00 00    	sub    esp,0x8c
 804cfbb:	81 7d 08 f4 00 00 00 	cmp    DWORD PTR [ebp+0x8],0xf4
 804cfc2:	0f 87 fa 02 00 00    	ja     804d2c2 <malloc+0x313>
 804cfc8:	83 7d 08 0a          	cmp    DWORD PTR [ebp+0x8],0xa
 804cfcc:	76 0b                	jbe    804cfd9 <malloc+0x2a>
 804cfce:	8b 45 08             	mov    eax,DWORD PTR [ebp+0x8]
 804cfd1:	83 c0 0b             	add    eax,0xb
 804cfd4:	83 e0 f8             	and    eax,0xfffffff8
 804cfd7:	eb 05                	jmp    804cfde <malloc+0x2f>
 804cfd9:	b8 10 00 00 00       	mov    eax,0x10
 804cfde:	89 45 e0             	mov    DWORD PTR [ebp-0x20],eax
 804cfe1:	8b 45 e0             	mov    eax,DWORD PTR [ebp-0x20]
 804cfe4:	c1 e8 03             	shr    eax,0x3
 804cfe7:	89 45 d8             	mov    DWORD PTR [ebp-0x28],eax
 804cfea:	8b 15 80 0b 05 08    	mov    edx,DWORD PTR ds:0x8050b80
 804cff0:	8b 45 d8             	mov    eax,DWORD PTR [ebp-0x28]
 804cff3:	89 d3                	mov    ebx,edx
 804cff5:	89 c1                	mov    ecx,eax
 804cff7:	d3 eb                	shr    ebx,cl
 804cff9:	89 d8                	mov    eax,ebx
 804cffb:	89 45 d4             	mov    DWORD PTR [ebp-0x2c],eax
 804cffe:	8b 45 d4             	mov    eax,DWORD PTR [ebp-0x2c]
 804d001:	83 e0 03             	and    eax,0x3
 804d004:	85 c0                	test   eax,eax
 804d006:	0f 84 ba 00 00 00    	je     804d0c6 <malloc+0x117>
 804d00c:	8b 45 d4             	mov    eax,DWORD PTR [ebp-0x2c]
 804d00f:	83 e0 01             	and    eax,0x1
 804d012:	85 c0                	test   eax,eax
 804d014:	0f 94 c0             	sete   al
 804d017:	0f b6 c0             	movzx  eax,al
 804d01a:	01 45 d8             	add    DWORD PTR [ebp-0x28],eax
 804d01d:	8b 45 d8             	mov    eax,DWORD PTR [ebp-0x28]
 804d020:	01 c0                	add    eax,eax
 804d022:	83 c0 08             	add    eax,0x8
 804d025:	c1 e0 02             	shl    eax,0x2
 804d028:	05 80 0b 05 08       	add    eax,0x8050b80
 804d02d:	83 c0 08             	add    eax,0x8
 804d030:	89 45 d0             	mov    DWORD PTR [ebp-0x30],eax
 804d033:	8b 45 d0             	mov    eax,DWORD PTR [ebp-0x30]
 804d036:	8b 40 08             	mov    eax,DWORD PTR [eax+0x8]
 804d039:	89 45 cc             	mov    DWORD PTR [ebp-0x34],eax
 804d03c:	8b 45 cc             	mov    eax,DWORD PTR [ebp-0x34]
 804d03f:	8b 40 08             	mov    eax,DWORD PTR [eax+0x8]
 804d042:	89 45 c8             	mov    DWORD PTR [ebp-0x38],eax
 804d045:	8b 45 d0             	mov    eax,DWORD PTR [ebp-0x30]
 804d048:	3b 45 c8             	cmp    eax,DWORD PTR [ebp-0x38]
 804d04b:	75 21                	jne    804d06e <malloc+0xbf>
 804d04d:	8b 15 80 0b 05 08    	mov    edx,DWORD PTR ds:0x8050b80
 804d053:	8b 45 d8             	mov    eax,DWORD PTR [ebp-0x28]
 804d056:	bb 01 00 00 00       	mov    ebx,0x1
 804d05b:	89 de                	mov    esi,ebx
 804d05d:	89 c1                	mov    ecx,eax
 804d05f:	d3 e6                	shl    esi,cl
 804d061:	89 f0                	mov    eax,esi
 804d063:	f7 d0                	not    eax
 804d065:	21 d0                	and    eax,edx
 804d067:	a3 80 0b 05 08       	mov    ds:0x8050b80,eax
 804d06c:	eb 12                	jmp    804d080 <malloc+0xd1>
 804d06e:	8b 45 d0             	mov    eax,DWORD PTR [ebp-0x30]
 804d071:	8b 55 c8             	mov    edx,DWORD PTR [ebp-0x38]
 804d074:	89 50 08             	mov    DWORD PTR [eax+0x8],edx
 804d077:	8b 45 c8             	mov    eax,DWORD PTR [ebp-0x38]
 804d07a:	8b 55 d0             	mov    edx,DWORD PTR [ebp-0x30]
 804d07d:	89 50 0c             	mov    DWORD PTR [eax+0xc],edx
 804d080:	8b 45 d8             	mov    eax,DWORD PTR [ebp-0x28]
 804d083:	c1 e0 03             	shl    eax,0x3
 804d086:	89 c2                	mov    edx,eax
 804d088:	83 ca 03             	or     edx,0x3
 804d08b:	8b 45 cc             	mov    eax,DWORD PTR [ebp-0x34]
 804d08e:	89 50 04             	mov    DWORD PTR [eax+0x4],edx
 804d091:	8b 45 d8             	mov    eax,DWORD PTR [ebp-0x28]
 804d094:	8d 14 c5 00 00 00 00 	lea    edx,[eax*8+0x0]
 804d09b:	8b 45 cc             	mov    eax,DWORD PTR [ebp-0x34]
 804d09e:	01 d0                	add    eax,edx
 804d0a0:	8b 55 d8             	mov    edx,DWORD PTR [ebp-0x28]
 804d0a3:	8d 0c d5 00 00 00 00 	lea    ecx,[edx*8+0x0]
 804d0aa:	8b 55 cc             	mov    edx,DWORD PTR [ebp-0x34]
 804d0ad:	01 ca                	add    edx,ecx
 804d0af:	8b 52 04             	mov    edx,DWORD PTR [edx+0x4]
 804d0b2:	83 ca 01             	or     edx,0x1
 804d0b5:	89 50 04             	mov    DWORD PTR [eax+0x4],edx
 804d0b8:	8b 45 cc             	mov    eax,DWORD PTR [ebp-0x34]
 804d0bb:	83 c0 08             	add    eax,0x8
 804d0be:	89 45 e4             	mov    DWORD PTR [ebp-0x1c],eax
 804d0c1:	e9 8e 03 00 00       	jmp    804d454 <malloc+0x4a5>
 804d0c6:	a1 88 0b 05 08       	mov    eax,ds:0x8050b88
 804d0cb:	3b 45 e0             	cmp    eax,DWORD PTR [ebp-0x20]
 804d0ce:	0f 83 32 02 00 00    	jae    804d306 <malloc+0x357>
 804d0d4:	83 7d d4 00          	cmp    DWORD PTR [ebp-0x2c],0x0
 804d0d8:	0f 84 ba 01 00 00    	je     804d298 <malloc+0x2e9>
 804d0de:	8b 45 d8             	mov    eax,DWORD PTR [ebp-0x28]
 804d0e1:	8b 55 d4             	mov    edx,DWORD PTR [ebp-0x2c]
 804d0e4:	89 d3                	mov    ebx,edx
 804d0e6:	89 c1                	mov    ecx,eax
 804d0e8:	d3 e3                	shl    ebx,cl
 804d0ea:	8b 45 d8             	mov    eax,DWORD PTR [ebp-0x28]
 804d0ed:	ba 01 00 00 00       	mov    edx,0x1
 804d0f2:	89 d6                	mov    esi,edx
 804d0f4:	89 c1                	mov    ecx,eax
 804d0f6:	d3 e6                	shl    esi,cl
 804d0f8:	89 f0                	mov    eax,esi
 804d0fa:	8d 34 00             	lea    esi,[eax+eax*1]
 804d0fd:	8b 45 d8             	mov    eax,DWORD PTR [ebp-0x28]
 804d100:	ba 01 00 00 00       	mov    edx,0x1
 804d105:	89 d7                	mov    edi,edx
 804d107:	89 c1                	mov    ecx,eax
 804d109:	d3 e7                	shl    edi,cl
 804d10b:	89 f8                	mov    eax,edi
 804d10d:	01 c0                	add    eax,eax
 804d10f:	f7 d8                	neg    eax
 804d111:	09 f0                	or     eax,esi
 804d113:	21 d8                	and    eax,ebx
 804d115:	89 45 c4             	mov    DWORD PTR [ebp-0x3c],eax
 804d118:	8b 45 c4             	mov    eax,DWORD PTR [ebp-0x3c]
 804d11b:	f7 d8                	neg    eax
 804d11d:	23 45 c4             	and    eax,DWORD PTR [ebp-0x3c]
 804d120:	89 45 c0             	mov    DWORD PTR [ebp-0x40],eax
 804d123:	0f bc 5d c0          	bsf    ebx,DWORD PTR [ebp-0x40]
 804d127:	89 5d bc             	mov    DWORD PTR [ebp-0x44],ebx
 804d12a:	8b 45 bc             	mov    eax,DWORD PTR [ebp-0x44]
 804d12d:	89 45 b8             	mov    DWORD PTR [ebp-0x48],eax
 804d130:	8b 45 b8             	mov    eax,DWORD PTR [ebp-0x48]
 804d133:	01 c0                	add    eax,eax
 804d135:	83 c0 08             	add    eax,0x8
 804d138:	c1 e0 02             	shl    eax,0x2
 804d13b:	05 80 0b 05 08       	add    eax,0x8050b80
 804d140:	83 c0 08             	add    eax,0x8
 804d143:	89 45 b4             	mov    DWORD PTR [ebp-0x4c],eax
 804d146:	8b 45 b4             	mov    eax,DWORD PTR [ebp-0x4c]
 804d149:	8b 40 08             	mov    eax,DWORD PTR [eax+0x8]
 804d14c:	89 45 b0             	mov    DWORD PTR [ebp-0x50],eax
 804d14f:	8b 45 b0             	mov    eax,DWORD PTR [ebp-0x50]
 804d152:	8b 40 08             	mov    eax,DWORD PTR [eax+0x8]
 804d155:	89 45 ac             	mov    DWORD PTR [ebp-0x54],eax
 804d158:	8b 45 b4             	mov    eax,DWORD PTR [ebp-0x4c]
 804d15b:	3b 45 ac             	cmp    eax,DWORD PTR [ebp-0x54]
 804d15e:	75 21                	jne    804d181 <malloc+0x1d2>
 804d160:	8b 15 80 0b 05 08    	mov    edx,DWORD PTR ds:0x8050b80
 804d166:	8b 45 b8             	mov    eax,DWORD PTR [ebp-0x48]
 804d169:	bb 01 00 00 00       	mov    ebx,0x1
 804d16e:	89 de                	mov    esi,ebx
 804d170:	89 c1                	mov    ecx,eax
 804d172:	d3 e6                	shl    esi,cl
 804d174:	89 f0                	mov    eax,esi
 804d176:	f7 d0                	not    eax
 804d178:	21 d0                	and    eax,edx
 804d17a:	a3 80 0b 05 08       	mov    ds:0x8050b80,eax
 804d17f:	eb 12                	jmp    804d193 <malloc+0x1e4>
 804d181:	8b 45 b4             	mov    eax,DWORD PTR [ebp-0x4c]
 804d184:	8b 55 ac             	mov    edx,DWORD PTR [ebp-0x54]
 804d187:	89 50 08             	mov    DWORD PTR [eax+0x8],edx
 804d18a:	8b 45 ac             	mov    eax,DWORD PTR [ebp-0x54]
 804d18d:	8b 55 b4             	mov    edx,DWORD PTR [ebp-0x4c]
 804d190:	89 50 0c             	mov    DWORD PTR [eax+0xc],edx
 804d193:	8b 45 b8             	mov    eax,DWORD PTR [ebp-0x48]
 804d196:	c1 e0 03             	shl    eax,0x3
 804d199:	2b 45 e0             	sub    eax,DWORD PTR [ebp-0x20]
 804d19c:	89 45 a8             	mov    DWORD PTR [ebp-0x58],eax
 804d19f:	8b 45 e0             	mov    eax,DWORD PTR [ebp-0x20]
 804d1a2:	89 c2                	mov    edx,eax
 804d1a4:	83 ca 03             	or     edx,0x3
 804d1a7:	8b 45 b0             	mov    eax,DWORD PTR [ebp-0x50]
 804d1aa:	89 50 04             	mov    DWORD PTR [eax+0x4],edx
 804d1ad:	8b 45 e0             	mov    eax,DWORD PTR [ebp-0x20]
 804d1b0:	8b 55 b0             	mov    edx,DWORD PTR [ebp-0x50]
 804d1b3:	01 d0                	add    eax,edx
 804d1b5:	89 45 a4             	mov    DWORD PTR [ebp-0x5c],eax
 804d1b8:	8b 45 a8             	mov    eax,DWORD PTR [ebp-0x58]
 804d1bb:	89 c2                	mov    edx,eax
 804d1bd:	83 ca 01             	or     edx,0x1
 804d1c0:	8b 45 a4             	mov    eax,DWORD PTR [ebp-0x5c]
 804d1c3:	89 50 04             	mov    DWORD PTR [eax+0x4],edx
 804d1c6:	8b 45 a8             	mov    eax,DWORD PTR [ebp-0x58]
 804d1c9:	8b 55 a4             	mov    edx,DWORD PTR [ebp-0x5c]
 804d1cc:	01 c2                	add    edx,eax
 804d1ce:	8b 45 a8             	mov    eax,DWORD PTR [ebp-0x58]
 804d1d1:	89 02                	mov    DWORD PTR [edx],eax
 804d1d3:	a1 88 0b 05 08       	mov    eax,ds:0x8050b88
 804d1d8:	89 45 a0             	mov    DWORD PTR [ebp-0x60],eax
 804d1db:	83 7d a0 00          	cmp    DWORD PTR [ebp-0x60],0x0
 804d1df:	0f 84 95 00 00 00    	je     804d27a <malloc+0x2cb>
 804d1e5:	a1 94 0b 05 08       	mov    eax,ds:0x8050b94
 804d1ea:	89 45 9c             	mov    DWORD PTR [ebp-0x64],eax
 804d1ed:	8b 45 a0             	mov    eax,DWORD PTR [ebp-0x60]
 804d1f0:	c1 e8 03             	shr    eax,0x3
 804d1f3:	89 45 98             	mov    DWORD PTR [ebp-0x68],eax
 804d1f6:	8b 45 98             	mov    eax,DWORD PTR [ebp-0x68]
 804d1f9:	01 c0                	add    eax,eax
 804d1fb:	83 c0 08             	add    eax,0x8
 804d1fe:	c1 e0 02             	shl    eax,0x2
 804d201:	05 80 0b 05 08       	add    eax,0x8050b80
 804d206:	83 c0 08             	add    eax,0x8
 804d209:	89 45 94             	mov    DWORD PTR [ebp-0x6c],eax
 804d20c:	8b 45 94             	mov    eax,DWORD PTR [ebp-0x6c]
 804d20f:	89 45 dc             	mov    DWORD PTR [ebp-0x24],eax
 804d212:	8b 15 80 0b 05 08    	mov    edx,DWORD PTR ds:0x8050b80
 804d218:	8b 45 98             	mov    eax,DWORD PTR [ebp-0x68]
 804d21b:	bb 01 00 00 00       	mov    ebx,0x1
 804d220:	89 de                	mov    esi,ebx
 804d222:	89 c1                	mov    ecx,eax
 804d224:	d3 e6                	shl    esi,cl
 804d226:	89 f0                	mov    eax,esi
 804d228:	21 d0                	and    eax,edx
 804d22a:	85 c0                	test   eax,eax
 804d22c:	75 1f                	jne    804d24d <malloc+0x29e>
 804d22e:	8b 15 80 0b 05 08    	mov    edx,DWORD PTR ds:0x8050b80
 804d234:	8b 45 98             	mov    eax,DWORD PTR [ebp-0x68]
 804d237:	bb 01 00 00 00       	mov    ebx,0x1
 804d23c:	89 de                	mov    esi,ebx
 804d23e:	89 c1                	mov    ecx,eax
 804d240:	d3 e6                	shl    esi,cl
 804d242:	89 f0                	mov    eax,esi
 804d244:	09 d0                	or     eax,edx
 804d246:	a3 80 0b 05 08       	mov    ds:0x8050b80,eax
 804d24b:	eb 09                	jmp    804d256 <malloc+0x2a7>
 804d24d:	8b 45 94             	mov    eax,DWORD PTR [ebp-0x6c]
 804d250:	8b 40 08             	mov    eax,DWORD PTR [eax+0x8]
 804d253:	89 45 dc             	mov    DWORD PTR [ebp-0x24],eax
 804d256:	8b 45 94             	mov    eax,DWORD PTR [ebp-0x6c]
 804d259:	8b 55 9c             	mov    edx,DWORD PTR [ebp-0x64]
 804d25c:	89 50 08             	mov    DWORD PTR [eax+0x8],edx
 804d25f:	8b 45 dc             	mov    eax,DWORD PTR [ebp-0x24]
 804d262:	8b 55 9c             	mov    edx,DWORD PTR [ebp-0x64]
 804d265:	89 50 0c             	mov    DWORD PTR [eax+0xc],edx
 804d268:	8b 45 9c             	mov    eax,DWORD PTR [ebp-0x64]
 804d26b:	8b 55 dc             	mov    edx,DWORD PTR [ebp-0x24]
 804d26e:	89 50 08             	mov    DWORD PTR [eax+0x8],edx
 804d271:	8b 45 9c             	mov    eax,DWORD PTR [ebp-0x64]
 804d274:	8b 55 94             	mov    edx,DWORD PTR [ebp-0x6c]
 804d277:	89 50 0c             	mov    DWORD PTR [eax+0xc],edx
 804d27a:	8b 45 a8             	mov    eax,DWORD PTR [ebp-0x58]
 804d27d:	a3 88 0b 05 08       	mov    ds:0x8050b88,eax
 804d282:	8b 45 a4             	mov    eax,DWORD PTR [ebp-0x5c]
 804d285:	a3 94 0b 05 08       	mov    ds:0x8050b94,eax
 804d28a:	8b 45 b0             	mov    eax,DWORD PTR [ebp-0x50]
 804d28d:	83 c0 08             	add    eax,0x8
 804d290:	89 45 e4             	mov    DWORD PTR [ebp-0x1c],eax
 804d293:	e9 bc 01 00 00       	jmp    804d454 <malloc+0x4a5>
 804d298:	a1 84 0b 05 08       	mov    eax,ds:0x8050b84
 804d29d:	85 c0                	test   eax,eax
 804d29f:	74 65                	je     804d306 <malloc+0x357>
 804d2a1:	8b 45 e0             	mov    eax,DWORD PTR [ebp-0x20]
 804d2a4:	89 44 24 04          	mov    DWORD PTR [esp+0x4],eax
 804d2a8:	c7 04 24 80 0b 05 08 	mov    DWORD PTR [esp],0x8050b80
 804d2af:	e8 06 f2 ff ff       	call   804c4ba <tmalloc_small>
 804d2b4:	89 45 e4             	mov    DWORD PTR [ebp-0x1c],eax
 804d2b7:	83 7d e4 00          	cmp    DWORD PTR [ebp-0x1c],0x0
 804d2bb:	74 49                	je     804d306 <malloc+0x357>
 804d2bd:	e9 92 01 00 00       	jmp    804d454 <malloc+0x4a5>
 804d2c2:	83 7d 08 bf          	cmp    DWORD PTR [ebp+0x8],0xffffffbf
 804d2c6:	76 09                	jbe    804d2d1 <malloc+0x322>
 804d2c8:	c7 45 e0 ff ff ff ff 	mov    DWORD PTR [ebp-0x20],0xffffffff
 804d2cf:	eb 35                	jmp    804d306 <malloc+0x357>
 804d2d1:	8b 45 08             	mov    eax,DWORD PTR [ebp+0x8]
 804d2d4:	83 c0 0b             	add    eax,0xb
 804d2d7:	83 e0 f8             	and    eax,0xfffffff8
 804d2da:	89 45 e0             	mov    DWORD PTR [ebp-0x20],eax
 804d2dd:	a1 84 0b 05 08       	mov    eax,ds:0x8050b84
 804d2e2:	85 c0                	test   eax,eax
 804d2e4:	74 20                	je     804d306 <malloc+0x357>
 804d2e6:	8b 45 e0             	mov    eax,DWORD PTR [ebp-0x20]
 804d2e9:	89 44 24 04          	mov    DWORD PTR [esp+0x4],eax
 804d2ed:	c7 04 24 80 0b 05 08 	mov    DWORD PTR [esp],0x8050b80
 804d2f4:	e8 eb ea ff ff       	call   804bde4 <tmalloc_large>
 804d2f9:	89 45 e4             	mov    DWORD PTR [ebp-0x1c],eax
 804d2fc:	83 7d e4 00          	cmp    DWORD PTR [ebp-0x1c],0x0
 804d300:	0f 85 4d 01 00 00    	jne    804d453 <malloc+0x4a4>
 804d306:	a1 88 0b 05 08       	mov    eax,ds:0x8050b88
 804d30b:	3b 45 e0             	cmp    eax,DWORD PTR [ebp-0x20]
 804d30e:	0f 82 b2 00 00 00    	jb     804d3c6 <malloc+0x417>
 804d314:	a1 88 0b 05 08       	mov    eax,ds:0x8050b88
 804d319:	2b 45 e0             	sub    eax,DWORD PTR [ebp-0x20]
 804d31c:	89 45 90             	mov    DWORD PTR [ebp-0x70],eax
 804d31f:	a1 94 0b 05 08       	mov    eax,ds:0x8050b94
 804d324:	89 45 8c             	mov    DWORD PTR [ebp-0x74],eax
 804d327:	83 7d 90 0f          	cmp    DWORD PTR [ebp-0x70],0xf
 804d32b:	76 48                	jbe    804d375 <malloc+0x3c6>
 804d32d:	8b 45 e0             	mov    eax,DWORD PTR [ebp-0x20]
 804d330:	8b 55 8c             	mov    edx,DWORD PTR [ebp-0x74]
 804d333:	01 d0                	add    eax,edx
 804d335:	a3 94 0b 05 08       	mov    ds:0x8050b94,eax
 804d33a:	a1 94 0b 05 08       	mov    eax,ds:0x8050b94
 804d33f:	89 45 88             	mov    DWORD PTR [ebp-0x78],eax
 804d342:	8b 45 90             	mov    eax,DWORD PTR [ebp-0x70]
 804d345:	a3 88 0b 05 08       	mov    ds:0x8050b88,eax
 804d34a:	8b 45 90             	mov    eax,DWORD PTR [ebp-0x70]
 804d34d:	89 c2                	mov    edx,eax
 804d34f:	83 ca 01             	or     edx,0x1
 804d352:	8b 45 88             	mov    eax,DWORD PTR [ebp-0x78]
 804d355:	89 50 04             	mov    DWORD PTR [eax+0x4],edx
 804d358:	8b 45 90             	mov    eax,DWORD PTR [ebp-0x70]
 804d35b:	8b 55 88             	mov    edx,DWORD PTR [ebp-0x78]
 804d35e:	01 c2                	add    edx,eax
 804d360:	8b 45 90             	mov    eax,DWORD PTR [ebp-0x70]
 804d363:	89 02                	mov    DWORD PTR [edx],eax
 804d365:	8b 45 e0             	mov    eax,DWORD PTR [ebp-0x20]
 804d368:	89 c2                	mov    edx,eax
 804d36a:	83 ca 03             	or     edx,0x3
 804d36d:	8b 45 8c             	mov    eax,DWORD PTR [ebp-0x74]
 804d370:	89 50 04             	mov    DWORD PTR [eax+0x4],edx
 804d373:	eb 43                	jmp    804d3b8 <malloc+0x409>
 804d375:	a1 88 0b 05 08       	mov    eax,ds:0x8050b88
 804d37a:	89 45 84             	mov    DWORD PTR [ebp-0x7c],eax
 804d37d:	c7 05 88 0b 05 08 00 	mov    DWORD PTR ds:0x8050b88,0x0
 804d384:	00 00 00 
 804d387:	c7 05 94 0b 05 08 00 	mov    DWORD PTR ds:0x8050b94,0x0
 804d38e:	00 00 00 
 804d391:	8b 45 84             	mov    eax,DWORD PTR [ebp-0x7c]
 804d394:	89 c2                	mov    edx,eax
 804d396:	83 ca 03             	or     edx,0x3
 804d399:	8b 45 8c             	mov    eax,DWORD PTR [ebp-0x74]
 804d39c:	89 50 04             	mov    DWORD PTR [eax+0x4],edx
 804d39f:	8b 45 84             	mov    eax,DWORD PTR [ebp-0x7c]
 804d3a2:	8b 55 8c             	mov    edx,DWORD PTR [ebp-0x74]
 804d3a5:	01 d0                	add    eax,edx
 804d3a7:	8b 55 84             	mov    edx,DWORD PTR [ebp-0x7c]
 804d3aa:	8b 4d 8c             	mov    ecx,DWORD PTR [ebp-0x74]
 804d3ad:	01 ca                	add    edx,ecx
 804d3af:	8b 52 04             	mov    edx,DWORD PTR [edx+0x4]
 804d3b2:	83 ca 01             	or     edx,0x1
 804d3b5:	89 50 04             	mov    DWORD PTR [eax+0x4],edx
 804d3b8:	8b 45 8c             	mov    eax,DWORD PTR [ebp-0x74]
 804d3bb:	83 c0 08             	add    eax,0x8
 804d3be:	89 45 e4             	mov    DWORD PTR [ebp-0x1c],eax
 804d3c1:	e9 8e 00 00 00       	jmp    804d454 <malloc+0x4a5>
 804d3c6:	a1 8c 0b 05 08       	mov    eax,ds:0x8050b8c
 804d3cb:	3b 45 e0             	cmp    eax,DWORD PTR [ebp-0x20]
 804d3ce:	76 6b                	jbe    804d43b <malloc+0x48c>
 804d3d0:	a1 8c 0b 05 08       	mov    eax,ds:0x8050b8c
 804d3d5:	2b 45 e0             	sub    eax,DWORD PTR [ebp-0x20]
 804d3d8:	a3 8c 0b 05 08       	mov    ds:0x8050b8c,eax
 804d3dd:	a1 8c 0b 05 08       	mov    eax,ds:0x8050b8c
 804d3e2:	89 45 80             	mov    DWORD PTR [ebp-0x80],eax
 804d3e5:	a1 98 0b 05 08       	mov    eax,ds:0x8050b98
 804d3ea:	89 85 7c ff ff ff    	mov    DWORD PTR [ebp-0x84],eax
 804d3f0:	8b 45 e0             	mov    eax,DWORD PTR [ebp-0x20]
 804d3f3:	8b 95 7c ff ff ff    	mov    edx,DWORD PTR [ebp-0x84]
 804d3f9:	01 d0                	add    eax,edx
 804d3fb:	a3 98 0b 05 08       	mov    ds:0x8050b98,eax
 804d400:	a1 98 0b 05 08       	mov    eax,ds:0x8050b98
 804d405:	89 85 78 ff ff ff    	mov    DWORD PTR [ebp-0x88],eax
 804d40b:	8b 45 80             	mov    eax,DWORD PTR [ebp-0x80]
 804d40e:	89 c2                	mov    edx,eax
 804d410:	83 ca 01             	or     edx,0x1
 804d413:	8b 85 78 ff ff ff    	mov    eax,DWORD PTR [ebp-0x88]
 804d419:	89 50 04             	mov    DWORD PTR [eax+0x4],edx
 804d41c:	8b 45 e0             	mov    eax,DWORD PTR [ebp-0x20]
 804d41f:	89 c2                	mov    edx,eax
 804d421:	83 ca 03             	or     edx,0x3
 804d424:	8b 85 7c ff ff ff    	mov    eax,DWORD PTR [ebp-0x84]
 804d42a:	89 50 04             	mov    DWORD PTR [eax+0x4],edx
 804d42d:	8b 85 7c ff ff ff    	mov    eax,DWORD PTR [ebp-0x84]
 804d433:	83 c0 08             	add    eax,0x8
 804d436:	89 45 e4             	mov    DWORD PTR [ebp-0x1c],eax
 804d439:	eb 19                	jmp    804d454 <malloc+0x4a5>
 804d43b:	8b 45 e0             	mov    eax,DWORD PTR [ebp-0x20]
 804d43e:	89 44 24 04          	mov    DWORD PTR [esp+0x4],eax
 804d442:	c7 04 24 80 0b 05 08 	mov    DWORD PTR [esp],0x8050b80
 804d449:	e8 3e dc ff ff       	call   804b08c <sys_alloc>
 804d44e:	89 45 e4             	mov    DWORD PTR [ebp-0x1c],eax
 804d451:	eb 01                	jmp    804d454 <malloc+0x4a5>
 804d453:	90                   	nop
 804d454:	8b 45 e4             	mov    eax,DWORD PTR [ebp-0x1c]
 804d457:	81 c4 8c 00 00 00    	add    esp,0x8c
 804d45d:	5b                   	pop    ebx
 804d45e:	5e                   	pop    esi
 804d45f:	5f                   	pop    edi
 804d460:	5d                   	pop    ebp
 804d461:	c3                   	ret    

0804d462 <free>:
 804d462:	55                   	push   ebp
 804d463:	89 e5                	mov    ebp,esp
 804d465:	56                   	push   esi
 804d466:	53                   	push   ebx
 804d467:	81 ec c0 00 00 00    	sub    esp,0xc0
 804d46d:	83 7d 08 00          	cmp    DWORD PTR [ebp+0x8],0x0
 804d471:	0f 84 8a 09 00 00    	je     804de01 <free+0x99f>
 804d477:	8b 45 08             	mov    eax,DWORD PTR [ebp+0x8]
 804d47a:	83 e8 08             	sub    eax,0x8
 804d47d:	89 45 f4             	mov    DWORD PTR [ebp-0xc],eax
 804d480:	8b 45 f4             	mov    eax,DWORD PTR [ebp-0xc]
 804d483:	8b 40 04             	mov    eax,DWORD PTR [eax+0x4]
 804d486:	83 e0 f8             	and    eax,0xfffffff8
 804d489:	89 45 f0             	mov    DWORD PTR [ebp-0x10],eax
 804d48c:	8b 45 f0             	mov    eax,DWORD PTR [ebp-0x10]
 804d48f:	8b 55 f4             	mov    edx,DWORD PTR [ebp-0xc]
 804d492:	01 d0                	add    eax,edx
 804d494:	89 45 c4             	mov    DWORD PTR [ebp-0x3c],eax
 804d497:	8b 45 f4             	mov    eax,DWORD PTR [ebp-0xc]
 804d49a:	8b 40 04             	mov    eax,DWORD PTR [eax+0x4]
 804d49d:	83 e0 01             	and    eax,0x1
 804d4a0:	85 c0                	test   eax,eax
 804d4a2:	0f 85 af 02 00 00    	jne    804d757 <free+0x2f5>
 804d4a8:	8b 45 f4             	mov    eax,DWORD PTR [ebp-0xc]
 804d4ab:	8b 00                	mov    eax,DWORD PTR [eax]
 804d4ad:	89 45 c0             	mov    DWORD PTR [ebp-0x40],eax
 804d4b0:	8b 45 f4             	mov    eax,DWORD PTR [ebp-0xc]
 804d4b3:	8b 40 04             	mov    eax,DWORD PTR [eax+0x4]
 804d4b6:	83 e0 03             	and    eax,0x3
 804d4b9:	85 c0                	test   eax,eax
 804d4bb:	75 43                	jne    804d500 <free+0x9e>
 804d4bd:	8b 45 f0             	mov    eax,DWORD PTR [ebp-0x10]
 804d4c0:	8b 55 c0             	mov    edx,DWORD PTR [ebp-0x40]
 804d4c3:	01 d0                	add    eax,edx
 804d4c5:	83 c0 10             	add    eax,0x10
 804d4c8:	89 45 f0             	mov    DWORD PTR [ebp-0x10],eax
 804d4cb:	8b 45 c0             	mov    eax,DWORD PTR [ebp-0x40]
 804d4ce:	89 c2                	mov    edx,eax
 804d4d0:	f7 da                	neg    edx
 804d4d2:	8b 45 f4             	mov    eax,DWORD PTR [ebp-0xc]
 804d4d5:	01 c2                	add    edx,eax
 804d4d7:	8b 45 f0             	mov    eax,DWORD PTR [ebp-0x10]
 804d4da:	89 44 24 04          	mov    DWORD PTR [esp+0x4],eax
 804d4de:	89 14 24             	mov    DWORD PTR [esp],edx
 804d4e1:	e8 ea b5 ff ff       	call   8048ad0 <munmap@plt>
 804d4e6:	85 c0                	test   eax,eax
 804d4e8:	0f 85 0c 09 00 00    	jne    804ddfa <free+0x998>
 804d4ee:	a1 30 0d 05 08       	mov    eax,ds:0x8050d30
 804d4f3:	2b 45 f0             	sub    eax,DWORD PTR [ebp-0x10]
 804d4f6:	a3 30 0d 05 08       	mov    ds:0x8050d30,eax
 804d4fb:	e9 fa 08 00 00       	jmp    804ddfa <free+0x998>
 804d500:	8b 45 c0             	mov    eax,DWORD PTR [ebp-0x40]
 804d503:	89 c2                	mov    edx,eax
 804d505:	f7 da                	neg    edx
 804d507:	8b 45 f4             	mov    eax,DWORD PTR [ebp-0xc]
 804d50a:	01 d0                	add    eax,edx
 804d50c:	89 45 bc             	mov    DWORD PTR [ebp-0x44],eax
 804d50f:	8b 45 c0             	mov    eax,DWORD PTR [ebp-0x40]
 804d512:	01 45 f0             	add    DWORD PTR [ebp-0x10],eax
 804d515:	8b 45 bc             	mov    eax,DWORD PTR [ebp-0x44]
 804d518:	89 45 f4             	mov    DWORD PTR [ebp-0xc],eax
 804d51b:	a1 94 0b 05 08       	mov    eax,ds:0x8050b94
 804d520:	3b 45 f4             	cmp    eax,DWORD PTR [ebp-0xc]
 804d523:	0f 84 e7 01 00 00    	je     804d710 <free+0x2ae>
 804d529:	8b 45 c0             	mov    eax,DWORD PTR [ebp-0x40]
 804d52c:	c1 e8 03             	shr    eax,0x3
 804d52f:	83 f8 1f             	cmp    eax,0x1f
 804d532:	77 5e                	ja     804d592 <free+0x130>
 804d534:	8b 45 f4             	mov    eax,DWORD PTR [ebp-0xc]
 804d537:	8b 40 08             	mov    eax,DWORD PTR [eax+0x8]
 804d53a:	89 45 b8             	mov    DWORD PTR [ebp-0x48],eax
 804d53d:	8b 45 f4             	mov    eax,DWORD PTR [ebp-0xc]
 804d540:	8b 40 0c             	mov    eax,DWORD PTR [eax+0xc]
 804d543:	89 45 b4             	mov    DWORD PTR [ebp-0x4c],eax
 804d546:	8b 45 c0             	mov    eax,DWORD PTR [ebp-0x40]
 804d549:	c1 e8 03             	shr    eax,0x3
 804d54c:	89 45 b0             	mov    DWORD PTR [ebp-0x50],eax
 804d54f:	8b 45 b8             	mov    eax,DWORD PTR [ebp-0x48]
 804d552:	3b 45 b4             	cmp    eax,DWORD PTR [ebp-0x4c]
 804d555:	75 24                	jne    804d57b <free+0x119>
 804d557:	8b 15 80 0b 05 08    	mov    edx,DWORD PTR ds:0x8050b80
 804d55d:	8b 45 b0             	mov    eax,DWORD PTR [ebp-0x50]
 804d560:	bb 01 00 00 00       	mov    ebx,0x1
 804d565:	89 de                	mov    esi,ebx
 804d567:	89 c1                	mov    ecx,eax
 804d569:	d3 e6                	shl    esi,cl
 804d56b:	89 f0                	mov    eax,esi
 804d56d:	f7 d0                	not    eax
 804d56f:	21 d0                	and    eax,edx
 804d571:	a3 80 0b 05 08       	mov    ds:0x8050b80,eax
 804d576:	e9 dc 01 00 00       	jmp    804d757 <free+0x2f5>
 804d57b:	8b 45 b8             	mov    eax,DWORD PTR [ebp-0x48]
 804d57e:	8b 55 b4             	mov    edx,DWORD PTR [ebp-0x4c]
 804d581:	89 50 0c             	mov    DWORD PTR [eax+0xc],edx
 804d584:	8b 45 b4             	mov    eax,DWORD PTR [ebp-0x4c]
 804d587:	8b 55 b8             	mov    edx,DWORD PTR [ebp-0x48]
 804d58a:	89 50 08             	mov    DWORD PTR [eax+0x8],edx
 804d58d:	e9 c5 01 00 00       	jmp    804d757 <free+0x2f5>
 804d592:	8b 45 f4             	mov    eax,DWORD PTR [ebp-0xc]
 804d595:	89 45 ac             	mov    DWORD PTR [ebp-0x54],eax
 804d598:	8b 45 ac             	mov    eax,DWORD PTR [ebp-0x54]
 804d59b:	8b 40 18             	mov    eax,DWORD PTR [eax+0x18]
 804d59e:	89 45 a8             	mov    DWORD PTR [ebp-0x58],eax
 804d5a1:	8b 45 ac             	mov    eax,DWORD PTR [ebp-0x54]
 804d5a4:	8b 40 0c             	mov    eax,DWORD PTR [eax+0xc]
 804d5a7:	3b 45 ac             	cmp    eax,DWORD PTR [ebp-0x54]
 804d5aa:	74 26                	je     804d5d2 <free+0x170>
 804d5ac:	8b 45 ac             	mov    eax,DWORD PTR [ebp-0x54]
 804d5af:	8b 40 08             	mov    eax,DWORD PTR [eax+0x8]
 804d5b2:	89 45 a4             	mov    DWORD PTR [ebp-0x5c],eax
 804d5b5:	8b 45 ac             	mov    eax,DWORD PTR [ebp-0x54]
 804d5b8:	8b 40 0c             	mov    eax,DWORD PTR [eax+0xc]
 804d5bb:	89 45 ec             	mov    DWORD PTR [ebp-0x14],eax
 804d5be:	8b 45 a4             	mov    eax,DWORD PTR [ebp-0x5c]
 804d5c1:	8b 55 ec             	mov    edx,DWORD PTR [ebp-0x14]
 804d5c4:	89 50 0c             	mov    DWORD PTR [eax+0xc],edx
 804d5c7:	8b 45 ec             	mov    eax,DWORD PTR [ebp-0x14]
 804d5ca:	8b 55 a4             	mov    edx,DWORD PTR [ebp-0x5c]
 804d5cd:	89 50 08             	mov    DWORD PTR [eax+0x8],edx
 804d5d0:	eb 6b                	jmp    804d63d <free+0x1db>
 804d5d2:	8b 45 ac             	mov    eax,DWORD PTR [ebp-0x54]
 804d5d5:	83 c0 14             	add    eax,0x14
 804d5d8:	89 45 e8             	mov    DWORD PTR [ebp-0x18],eax
 804d5db:	8b 45 e8             	mov    eax,DWORD PTR [ebp-0x18]
 804d5de:	8b 00                	mov    eax,DWORD PTR [eax]
 804d5e0:	89 45 ec             	mov    DWORD PTR [ebp-0x14],eax
 804d5e3:	83 7d ec 00          	cmp    DWORD PTR [ebp-0x14],0x0
 804d5e7:	75 27                	jne    804d610 <free+0x1ae>
 804d5e9:	8b 45 ac             	mov    eax,DWORD PTR [ebp-0x54]
 804d5ec:	83 c0 10             	add    eax,0x10
 804d5ef:	89 45 e8             	mov    DWORD PTR [ebp-0x18],eax
 804d5f2:	8b 45 e8             	mov    eax,DWORD PTR [ebp-0x18]
 804d5f5:	8b 00                	mov    eax,DWORD PTR [eax]
 804d5f7:	89 45 ec             	mov    DWORD PTR [ebp-0x14],eax
 804d5fa:	83 7d ec 00          	cmp    DWORD PTR [ebp-0x14],0x0
 804d5fe:	74 3d                	je     804d63d <free+0x1db>
 804d600:	eb 0e                	jmp    804d610 <free+0x1ae>
 804d602:	8b 45 e4             	mov    eax,DWORD PTR [ebp-0x1c]
 804d605:	89 45 e8             	mov    DWORD PTR [ebp-0x18],eax
 804d608:	8b 45 e8             	mov    eax,DWORD PTR [ebp-0x18]
 804d60b:	8b 00                	mov    eax,DWORD PTR [eax]
 804d60d:	89 45 ec             	mov    DWORD PTR [ebp-0x14],eax
 804d610:	8b 45 ec             	mov    eax,DWORD PTR [ebp-0x14]
 804d613:	83 c0 14             	add    eax,0x14
 804d616:	89 45 e4             	mov    DWORD PTR [ebp-0x1c],eax
 804d619:	8b 45 e4             	mov    eax,DWORD PTR [ebp-0x1c]
 804d61c:	8b 00                	mov    eax,DWORD PTR [eax]
 804d61e:	85 c0                	test   eax,eax
 804d620:	75 e0                	jne    804d602 <free+0x1a0>
 804d622:	8b 45 ec             	mov    eax,DWORD PTR [ebp-0x14]
 804d625:	83 c0 10             	add    eax,0x10
 804d628:	89 45 e4             	mov    DWORD PTR [ebp-0x1c],eax
 804d62b:	8b 45 e4             	mov    eax,DWORD PTR [ebp-0x1c]
 804d62e:	8b 00                	mov    eax,DWORD PTR [eax]
 804d630:	85 c0                	test   eax,eax
 804d632:	75 ce                	jne    804d602 <free+0x1a0>
 804d634:	8b 45 e8             	mov    eax,DWORD PTR [ebp-0x18]
 804d637:	c7 00 00 00 00 00    	mov    DWORD PTR [eax],0x0
 804d63d:	83 7d a8 00          	cmp    DWORD PTR [ebp-0x58],0x0
 804d641:	0f 84 10 01 00 00    	je     804d757 <free+0x2f5>
 804d647:	8b 45 ac             	mov    eax,DWORD PTR [ebp-0x54]
 804d64a:	8b 40 1c             	mov    eax,DWORD PTR [eax+0x1c]
 804d64d:	83 c0 4c             	add    eax,0x4c
 804d650:	c1 e0 02             	shl    eax,0x2
 804d653:	05 80 0b 05 08       	add    eax,0x8050b80
 804d658:	89 45 a0             	mov    DWORD PTR [ebp-0x60],eax
 804d65b:	8b 45 a0             	mov    eax,DWORD PTR [ebp-0x60]
 804d65e:	8b 00                	mov    eax,DWORD PTR [eax]
 804d660:	3b 45 ac             	cmp    eax,DWORD PTR [ebp-0x54]
 804d663:	75 35                	jne    804d69a <free+0x238>
 804d665:	8b 45 a0             	mov    eax,DWORD PTR [ebp-0x60]
 804d668:	8b 55 ec             	mov    edx,DWORD PTR [ebp-0x14]
 804d66b:	89 10                	mov    DWORD PTR [eax],edx
 804d66d:	8b 45 a0             	mov    eax,DWORD PTR [ebp-0x60]
 804d670:	8b 00                	mov    eax,DWORD PTR [eax]
 804d672:	85 c0                	test   eax,eax
 804d674:	75 43                	jne    804d6b9 <free+0x257>
 804d676:	8b 15 84 0b 05 08    	mov    edx,DWORD PTR ds:0x8050b84
 804d67c:	8b 45 ac             	mov    eax,DWORD PTR [ebp-0x54]
 804d67f:	8b 40 1c             	mov    eax,DWORD PTR [eax+0x1c]
 804d682:	bb 01 00 00 00       	mov    ebx,0x1
 804d687:	89 de                	mov    esi,ebx
 804d689:	89 c1                	mov    ecx,eax
 804d68b:	d3 e6                	shl    esi,cl
 804d68d:	89 f0                	mov    eax,esi
 804d68f:	f7 d0                	not    eax
 804d691:	21 d0                	and    eax,edx
 804d693:	a3 84 0b 05 08       	mov    ds:0x8050b84,eax
 804d698:	eb 1f                	jmp    804d6b9 <free+0x257>
 804d69a:	8b 45 a8             	mov    eax,DWORD PTR [ebp-0x58]
 804d69d:	8b 40 10             	mov    eax,DWORD PTR [eax+0x10]
 804d6a0:	3b 45 ac             	cmp    eax,DWORD PTR [ebp-0x54]
 804d6a3:	75 0b                	jne    804d6b0 <free+0x24e>
 804d6a5:	8b 45 a8             	mov    eax,DWORD PTR [ebp-0x58]
 804d6a8:	8b 55 ec             	mov    edx,DWORD PTR [ebp-0x14]
 804d6ab:	89 50 10             	mov    DWORD PTR [eax+0x10],edx
 804d6ae:	eb 09                	jmp    804d6b9 <free+0x257>
 804d6b0:	8b 45 a8             	mov    eax,DWORD PTR [ebp-0x58]
 804d6b3:	8b 55 ec             	mov    edx,DWORD PTR [ebp-0x14]
 804d6b6:	89 50 14             	mov    DWORD PTR [eax+0x14],edx
 804d6b9:	83 7d ec 00          	cmp    DWORD PTR [ebp-0x14],0x0
 804d6bd:	0f 84 94 00 00 00    	je     804d757 <free+0x2f5>
 804d6c3:	8b 45 ec             	mov    eax,DWORD PTR [ebp-0x14]
 804d6c6:	8b 55 a8             	mov    edx,DWORD PTR [ebp-0x58]
 804d6c9:	89 50 18             	mov    DWORD PTR [eax+0x18],edx
 804d6cc:	8b 45 ac             	mov    eax,DWORD PTR [ebp-0x54]
 804d6cf:	8b 40 10             	mov    eax,DWORD PTR [eax+0x10]
 804d6d2:	89 45 9c             	mov    DWORD PTR [ebp-0x64],eax
 804d6d5:	83 7d 9c 00          	cmp    DWORD PTR [ebp-0x64],0x0
 804d6d9:	74 12                	je     804d6ed <free+0x28b>
 804d6db:	8b 45 ec             	mov    eax,DWORD PTR [ebp-0x14]
 804d6de:	8b 55 9c             	mov    edx,DWORD PTR [ebp-0x64]
 804d6e1:	89 50 10             	mov    DWORD PTR [eax+0x10],edx
 804d6e4:	8b 45 9c             	mov    eax,DWORD PTR [ebp-0x64]
 804d6e7:	8b 55 ec             	mov    edx,DWORD PTR [ebp-0x14]
 804d6ea:	89 50 18             	mov    DWORD PTR [eax+0x18],edx
 804d6ed:	8b 45 ac             	mov    eax,DWORD PTR [ebp-0x54]
 804d6f0:	8b 40 14             	mov    eax,DWORD PTR [eax+0x14]
 804d6f3:	89 45 98             	mov    DWORD PTR [ebp-0x68],eax
 804d6f6:	83 7d 98 00          	cmp    DWORD PTR [ebp-0x68],0x0
 804d6fa:	74 5b                	je     804d757 <free+0x2f5>
 804d6fc:	8b 45 ec             	mov    eax,DWORD PTR [ebp-0x14]
 804d6ff:	8b 55 98             	mov    edx,DWORD PTR [ebp-0x68]
 804d702:	89 50 14             	mov    DWORD PTR [eax+0x14],edx
 804d705:	8b 45 98             	mov    eax,DWORD PTR [ebp-0x68]
 804d708:	8b 55 ec             	mov    edx,DWORD PTR [ebp-0x14]
 804d70b:	89 50 18             	mov    DWORD PTR [eax+0x18],edx
 804d70e:	eb 47                	jmp    804d757 <free+0x2f5>
 804d710:	8b 45 c4             	mov    eax,DWORD PTR [ebp-0x3c]
 804d713:	8b 40 04             	mov    eax,DWORD PTR [eax+0x4]
 804d716:	83 e0 03             	and    eax,0x3
 804d719:	83 f8 03             	cmp    eax,0x3
 804d71c:	75 39                	jne    804d757 <free+0x2f5>
 804d71e:	8b 45 f0             	mov    eax,DWORD PTR [ebp-0x10]
 804d721:	a3 88 0b 05 08       	mov    ds:0x8050b88,eax
 804d726:	8b 45 c4             	mov    eax,DWORD PTR [ebp-0x3c]
 804d729:	8b 40 04             	mov    eax,DWORD PTR [eax+0x4]
 804d72c:	89 c2                	mov    edx,eax
 804d72e:	83 e2 fe             	and    edx,0xfffffffe
 804d731:	8b 45 c4             	mov    eax,DWORD PTR [ebp-0x3c]
 804d734:	89 50 04             	mov    DWORD PTR [eax+0x4],edx
 804d737:	8b 45 f0             	mov    eax,DWORD PTR [ebp-0x10]
 804d73a:	89 c2                	mov    edx,eax
 804d73c:	83 ca 01             	or     edx,0x1
 804d73f:	8b 45 f4             	mov    eax,DWORD PTR [ebp-0xc]
 804d742:	89 50 04             	mov    DWORD PTR [eax+0x4],edx
 804d745:	8b 45 f0             	mov    eax,DWORD PTR [ebp-0x10]
 804d748:	8b 55 f4             	mov    edx,DWORD PTR [ebp-0xc]
 804d74b:	01 c2                	add    edx,eax
 804d74d:	8b 45 f0             	mov    eax,DWORD PTR [ebp-0x10]
 804d750:	89 02                	mov    DWORD PTR [edx],eax
 804d752:	e9 aa 06 00 00       	jmp    804de01 <free+0x99f>
 804d757:	8b 45 c4             	mov    eax,DWORD PTR [ebp-0x3c]
 804d75a:	8b 40 04             	mov    eax,DWORD PTR [eax+0x4]
 804d75d:	83 e0 02             	and    eax,0x2
 804d760:	85 c0                	test   eax,eax
 804d762:	0f 85 55 03 00 00    	jne    804dabd <free+0x65b>
 804d768:	a1 98 0b 05 08       	mov    eax,ds:0x8050b98
 804d76d:	3b 45 c4             	cmp    eax,DWORD PTR [ebp-0x3c]
 804d770:	75 73                	jne    804d7e5 <free+0x383>
 804d772:	8b 15 8c 0b 05 08    	mov    edx,DWORD PTR ds:0x8050b8c
 804d778:	8b 45 f0             	mov    eax,DWORD PTR [ebp-0x10]
 804d77b:	01 d0                	add    eax,edx
 804d77d:	a3 8c 0b 05 08       	mov    ds:0x8050b8c,eax
 804d782:	a1 8c 0b 05 08       	mov    eax,ds:0x8050b8c
 804d787:	89 45 94             	mov    DWORD PTR [ebp-0x6c],eax
 804d78a:	8b 45 f4             	mov    eax,DWORD PTR [ebp-0xc]
 804d78d:	a3 98 0b 05 08       	mov    ds:0x8050b98,eax
 804d792:	8b 45 94             	mov    eax,DWORD PTR [ebp-0x6c]
 804d795:	89 c2                	mov    edx,eax
 804d797:	83 ca 01             	or     edx,0x1
 804d79a:	8b 45 f4             	mov    eax,DWORD PTR [ebp-0xc]
 804d79d:	89 50 04             	mov    DWORD PTR [eax+0x4],edx
 804d7a0:	a1 94 0b 05 08       	mov    eax,ds:0x8050b94
 804d7a5:	3b 45 f4             	cmp    eax,DWORD PTR [ebp-0xc]
 804d7a8:	75 14                	jne    804d7be <free+0x35c>
 804d7aa:	c7 05 94 0b 05 08 00 	mov    DWORD PTR ds:0x8050b94,0x0
 804d7b1:	00 00 00 
 804d7b4:	c7 05 88 0b 05 08 00 	mov    DWORD PTR ds:0x8050b88,0x0
 804d7bb:	00 00 00 
 804d7be:	a1 9c 0b 05 08       	mov    eax,ds:0x8050b9c
 804d7c3:	3b 45 94             	cmp    eax,DWORD PTR [ebp-0x6c]
 804d7c6:	0f 83 31 06 00 00    	jae    804ddfd <free+0x99b>
 804d7cc:	c7 44 24 04 00 00 00 	mov    DWORD PTR [esp+0x4],0x0
 804d7d3:	00 
 804d7d4:	c7 04 24 80 0b 05 08 	mov    DWORD PTR [esp],0x8050b80
 804d7db:	e8 d3 e3 ff ff       	call   804bbb3 <sys_trim>
 804d7e0:	e9 18 06 00 00       	jmp    804ddfd <free+0x99b>
 804d7e5:	a1 94 0b 05 08       	mov    eax,ds:0x8050b94
 804d7ea:	3b 45 c4             	cmp    eax,DWORD PTR [ebp-0x3c]
 804d7ed:	75 40                	jne    804d82f <free+0x3cd>
 804d7ef:	8b 15 88 0b 05 08    	mov    edx,DWORD PTR ds:0x8050b88
 804d7f5:	8b 45 f0             	mov    eax,DWORD PTR [ebp-0x10]
 804d7f8:	01 d0                	add    eax,edx
 804d7fa:	a3 88 0b 05 08       	mov    ds:0x8050b88,eax
 804d7ff:	a1 88 0b 05 08       	mov    eax,ds:0x8050b88
 804d804:	89 45 90             	mov    DWORD PTR [ebp-0x70],eax
 804d807:	8b 45 f4             	mov    eax,DWORD PTR [ebp-0xc]
 804d80a:	a3 94 0b 05 08       	mov    ds:0x8050b94,eax
 804d80f:	8b 45 90             	mov    eax,DWORD PTR [ebp-0x70]
 804d812:	89 c2                	mov    edx,eax
 804d814:	83 ca 01             	or     edx,0x1
 804d817:	8b 45 f4             	mov    eax,DWORD PTR [ebp-0xc]
 804d81a:	89 50 04             	mov    DWORD PTR [eax+0x4],edx
 804d81d:	8b 45 90             	mov    eax,DWORD PTR [ebp-0x70]
 804d820:	8b 55 f4             	mov    edx,DWORD PTR [ebp-0xc]
 804d823:	01 c2                	add    edx,eax
 804d825:	8b 45 90             	mov    eax,DWORD PTR [ebp-0x70]
 804d828:	89 02                	mov    DWORD PTR [edx],eax
 804d82a:	e9 d2 05 00 00       	jmp    804de01 <free+0x99f>
 804d82f:	8b 45 c4             	mov    eax,DWORD PTR [ebp-0x3c]
 804d832:	8b 40 04             	mov    eax,DWORD PTR [eax+0x4]
 804d835:	83 e0 f8             	and    eax,0xfffffff8
 804d838:	89 45 8c             	mov    DWORD PTR [ebp-0x74],eax
 804d83b:	8b 45 8c             	mov    eax,DWORD PTR [ebp-0x74]
 804d83e:	01 45 f0             	add    DWORD PTR [ebp-0x10],eax
 804d841:	8b 45 8c             	mov    eax,DWORD PTR [ebp-0x74]
 804d844:	c1 e8 03             	shr    eax,0x3
 804d847:	83 f8 1f             	cmp    eax,0x1f
 804d84a:	77 5e                	ja     804d8aa <free+0x448>
 804d84c:	8b 45 c4             	mov    eax,DWORD PTR [ebp-0x3c]
 804d84f:	8b 40 08             	mov    eax,DWORD PTR [eax+0x8]
 804d852:	89 45 88             	mov    DWORD PTR [ebp-0x78],eax
 804d855:	8b 45 c4             	mov    eax,DWORD PTR [ebp-0x3c]
 804d858:	8b 40 0c             	mov    eax,DWORD PTR [eax+0xc]
 804d85b:	89 45 84             	mov    DWORD PTR [ebp-0x7c],eax
 804d85e:	8b 45 8c             	mov    eax,DWORD PTR [ebp-0x74]
 804d861:	c1 e8 03             	shr    eax,0x3
 804d864:	89 45 80             	mov    DWORD PTR [ebp-0x80],eax
 804d867:	8b 45 88             	mov    eax,DWORD PTR [ebp-0x78]
 804d86a:	3b 45 84             	cmp    eax,DWORD PTR [ebp-0x7c]
 804d86d:	75 24                	jne    804d893 <free+0x431>
 804d86f:	8b 15 80 0b 05 08    	mov    edx,DWORD PTR ds:0x8050b80
 804d875:	8b 45 80             	mov    eax,DWORD PTR [ebp-0x80]
 804d878:	bb 01 00 00 00       	mov    ebx,0x1
 804d87d:	89 de                	mov    esi,ebx
 804d87f:	89 c1                	mov    ecx,eax
 804d881:	d3 e6                	shl    esi,cl
 804d883:	89 f0                	mov    eax,esi
 804d885:	f7 d0                	not    eax
 804d887:	21 d0                	and    eax,edx
 804d889:	a3 80 0b 05 08       	mov    ds:0x8050b80,eax
 804d88e:	e9 f8 01 00 00       	jmp    804da8b <free+0x629>
 804d893:	8b 45 88             	mov    eax,DWORD PTR [ebp-0x78]
 804d896:	8b 55 84             	mov    edx,DWORD PTR [ebp-0x7c]
 804d899:	89 50 0c             	mov    DWORD PTR [eax+0xc],edx
 804d89c:	8b 45 84             	mov    eax,DWORD PTR [ebp-0x7c]
 804d89f:	8b 55 88             	mov    edx,DWORD PTR [ebp-0x78]
 804d8a2:	89 50 08             	mov    DWORD PTR [eax+0x8],edx
 804d8a5:	e9 e1 01 00 00       	jmp    804da8b <free+0x629>
 804d8aa:	8b 45 c4             	mov    eax,DWORD PTR [ebp-0x3c]
 804d8ad:	89 85 7c ff ff ff    	mov    DWORD PTR [ebp-0x84],eax
 804d8b3:	8b 85 7c ff ff ff    	mov    eax,DWORD PTR [ebp-0x84]
 804d8b9:	8b 40 18             	mov    eax,DWORD PTR [eax+0x18]
 804d8bc:	89 85 78 ff ff ff    	mov    DWORD PTR [ebp-0x88],eax
 804d8c2:	8b 85 7c ff ff ff    	mov    eax,DWORD PTR [ebp-0x84]
 804d8c8:	8b 40 0c             	mov    eax,DWORD PTR [eax+0xc]
 804d8cb:	3b 85 7c ff ff ff    	cmp    eax,DWORD PTR [ebp-0x84]
 804d8d1:	74 35                	je     804d908 <free+0x4a6>
 804d8d3:	8b 85 7c ff ff ff    	mov    eax,DWORD PTR [ebp-0x84]
 804d8d9:	8b 40 08             	mov    eax,DWORD PTR [eax+0x8]
 804d8dc:	89 85 74 ff ff ff    	mov    DWORD PTR [ebp-0x8c],eax
 804d8e2:	8b 85 7c ff ff ff    	mov    eax,DWORD PTR [ebp-0x84]
 804d8e8:	8b 40 0c             	mov    eax,DWORD PTR [eax+0xc]
 804d8eb:	89 45 e0             	mov    DWORD PTR [ebp-0x20],eax
 804d8ee:	8b 85 74 ff ff ff    	mov    eax,DWORD PTR [ebp-0x8c]
 804d8f4:	8b 55 e0             	mov    edx,DWORD PTR [ebp-0x20]
 804d8f7:	89 50 0c             	mov    DWORD PTR [eax+0xc],edx
 804d8fa:	8b 45 e0             	mov    eax,DWORD PTR [ebp-0x20]
 804d8fd:	8b 95 74 ff ff ff    	mov    edx,DWORD PTR [ebp-0x8c]
 804d903:	89 50 08             	mov    DWORD PTR [eax+0x8],edx
 804d906:	eb 71                	jmp    804d979 <free+0x517>
 804d908:	8b 85 7c ff ff ff    	mov    eax,DWORD PTR [ebp-0x84]
 804d90e:	83 c0 14             	add    eax,0x14
 804d911:	89 45 dc             	mov    DWORD PTR [ebp-0x24],eax
 804d914:	8b 45 dc             	mov    eax,DWORD PTR [ebp-0x24]
 804d917:	8b 00                	mov    eax,DWORD PTR [eax]
 804d919:	89 45 e0             	mov    DWORD PTR [ebp-0x20],eax
 804d91c:	83 7d e0 00          	cmp    DWORD PTR [ebp-0x20],0x0
 804d920:	75 2a                	jne    804d94c <free+0x4ea>
 804d922:	8b 85 7c ff ff ff    	mov    eax,DWORD PTR [ebp-0x84]
 804d928:	83 c0 10             	add    eax,0x10
 804d92b:	89 45 dc             	mov    DWORD PTR [ebp-0x24],eax
 804d92e:	8b 45 dc             	mov    eax,DWORD PTR [ebp-0x24]
 804d931:	8b 00                	mov    eax,DWORD PTR [eax]
 804d933:	89 45 e0             	mov    DWORD PTR [ebp-0x20],eax
 804d936:	83 7d e0 00          	cmp    DWORD PTR [ebp-0x20],0x0
 804d93a:	74 3d                	je     804d979 <free+0x517>
 804d93c:	eb 0e                	jmp    804d94c <free+0x4ea>
 804d93e:	8b 45 d8             	mov    eax,DWORD PTR [ebp-0x28]
 804d941:	89 45 dc             	mov    DWORD PTR [ebp-0x24],eax
 804d944:	8b 45 dc             	mov    eax,DWORD PTR [ebp-0x24]
 804d947:	8b 00                	mov    eax,DWORD PTR [eax]
 804d949:	89 45 e0             	mov    DWORD PTR [ebp-0x20],eax
 804d94c:	8b 45 e0             	mov    eax,DWORD PTR [ebp-0x20]
 804d94f:	83 c0 14             	add    eax,0x14
 804d952:	89 45 d8             	mov    DWORD PTR [ebp-0x28],eax
 804d955:	8b 45 d8             	mov    eax,DWORD PTR [ebp-0x28]
 804d958:	8b 00                	mov    eax,DWORD PTR [eax]
 804d95a:	85 c0                	test   eax,eax
 804d95c:	75 e0                	jne    804d93e <free+0x4dc>
 804d95e:	8b 45 e0             	mov    eax,DWORD PTR [ebp-0x20]
 804d961:	83 c0 10             	add    eax,0x10
 804d964:	89 45 d8             	mov    DWORD PTR [ebp-0x28],eax
 804d967:	8b 45 d8             	mov    eax,DWORD PTR [ebp-0x28]
 804d96a:	8b 00                	mov    eax,DWORD PTR [eax]
 804d96c:	85 c0                	test   eax,eax
 804d96e:	75 ce                	jne    804d93e <free+0x4dc>
 804d970:	8b 45 dc             	mov    eax,DWORD PTR [ebp-0x24]
 804d973:	c7 00 00 00 00 00    	mov    DWORD PTR [eax],0x0
 804d979:	83 bd 78 ff ff ff 00 	cmp    DWORD PTR [ebp-0x88],0x0
 804d980:	0f 84 05 01 00 00    	je     804da8b <free+0x629>
 804d986:	8b 85 7c ff ff ff    	mov    eax,DWORD PTR [ebp-0x84]
 804d98c:	8b 40 1c             	mov    eax,DWORD PTR [eax+0x1c]
 804d98f:	83 c0 4c             	add    eax,0x4c
 804d992:	c1 e0 02             	shl    eax,0x2
 804d995:	05 80 0b 05 08       	add    eax,0x8050b80
 804d99a:	89 85 70 ff ff ff    	mov    DWORD PTR [ebp-0x90],eax
 804d9a0:	8b 85 70 ff ff ff    	mov    eax,DWORD PTR [ebp-0x90]
 804d9a6:	8b 00                	mov    eax,DWORD PTR [eax]
 804d9a8:	3b 85 7c ff ff ff    	cmp    eax,DWORD PTR [ebp-0x84]
 804d9ae:	75 3e                	jne    804d9ee <free+0x58c>
 804d9b0:	8b 85 70 ff ff ff    	mov    eax,DWORD PTR [ebp-0x90]
 804d9b6:	8b 55 e0             	mov    edx,DWORD PTR [ebp-0x20]
 804d9b9:	89 10                	mov    DWORD PTR [eax],edx
 804d9bb:	8b 85 70 ff ff ff    	mov    eax,DWORD PTR [ebp-0x90]
 804d9c1:	8b 00                	mov    eax,DWORD PTR [eax]
 804d9c3:	85 c0                	test   eax,eax
 804d9c5:	75 52                	jne    804da19 <free+0x5b7>
 804d9c7:	8b 15 84 0b 05 08    	mov    edx,DWORD PTR ds:0x8050b84
 804d9cd:	8b 85 7c ff ff ff    	mov    eax,DWORD PTR [ebp-0x84]
 804d9d3:	8b 40 1c             	mov    eax,DWORD PTR [eax+0x1c]
 804d9d6:	bb 01 00 00 00       	mov    ebx,0x1
 804d9db:	89 de                	mov    esi,ebx
 804d9dd:	89 c1                	mov    ecx,eax
 804d9df:	d3 e6                	shl    esi,cl
 804d9e1:	89 f0                	mov    eax,esi
 804d9e3:	f7 d0                	not    eax
 804d9e5:	21 d0                	and    eax,edx
 804d9e7:	a3 84 0b 05 08       	mov    ds:0x8050b84,eax
 804d9ec:	eb 2b                	jmp    804da19 <free+0x5b7>
 804d9ee:	8b 85 78 ff ff ff    	mov    eax,DWORD PTR [ebp-0x88]
 804d9f4:	8b 40 10             	mov    eax,DWORD PTR [eax+0x10]
 804d9f7:	3b 85 7c ff ff ff    	cmp    eax,DWORD PTR [ebp-0x84]
 804d9fd:	75 0e                	jne    804da0d <free+0x5ab>
 804d9ff:	8b 85 78 ff ff ff    	mov    eax,DWORD PTR [ebp-0x88]
 804da05:	8b 55 e0             	mov    edx,DWORD PTR [ebp-0x20]
 804da08:	89 50 10             	mov    DWORD PTR [eax+0x10],edx
 804da0b:	eb 0c                	jmp    804da19 <free+0x5b7>
 804da0d:	8b 85 78 ff ff ff    	mov    eax,DWORD PTR [ebp-0x88]
 804da13:	8b 55 e0             	mov    edx,DWORD PTR [ebp-0x20]
 804da16:	89 50 14             	mov    DWORD PTR [eax+0x14],edx
 804da19:	83 7d e0 00          	cmp    DWORD PTR [ebp-0x20],0x0
 804da1d:	74 6c                	je     804da8b <free+0x629>
 804da1f:	8b 45 e0             	mov    eax,DWORD PTR [ebp-0x20]
 804da22:	8b 95 78 ff ff ff    	mov    edx,DWORD PTR [ebp-0x88]
 804da28:	89 50 18             	mov    DWORD PTR [eax+0x18],edx
 804da2b:	8b 85 7c ff ff ff    	mov    eax,DWORD PTR [ebp-0x84]
 804da31:	8b 40 10             	mov    eax,DWORD PTR [eax+0x10]
 804da34:	89 85 6c ff ff ff    	mov    DWORD PTR [ebp-0x94],eax
 804da3a:	83 bd 6c ff ff ff 00 	cmp    DWORD PTR [ebp-0x94],0x0
 804da41:	74 18                	je     804da5b <free+0x5f9>
 804da43:	8b 45 e0             	mov    eax,DWORD PTR [ebp-0x20]
 804da46:	8b 95 6c ff ff ff    	mov    edx,DWORD PTR [ebp-0x94]
 804da4c:	89 50 10             	mov    DWORD PTR [eax+0x10],edx
 804da4f:	8b 85 6c ff ff ff    	mov    eax,DWORD PTR [ebp-0x94]
 804da55:	8b 55 e0             	mov    edx,DWORD PTR [ebp-0x20]
 804da58:	89 50 18             	mov    DWORD PTR [eax+0x18],edx
 804da5b:	8b 85 7c ff ff ff    	mov    eax,DWORD PTR [ebp-0x84]
 804da61:	8b 40 14             	mov    eax,DWORD PTR [eax+0x14]
 804da64:	89 85 68 ff ff ff    	mov    DWORD PTR [ebp-0x98],eax
 804da6a:	83 bd 68 ff ff ff 00 	cmp    DWORD PTR [ebp-0x98],0x0
 804da71:	74 18                	je     804da8b <free+0x629>
 804da73:	8b 45 e0             	mov    eax,DWORD PTR [ebp-0x20]
 804da76:	8b 95 68 ff ff ff    	mov    edx,DWORD PTR [ebp-0x98]
 804da7c:	89 50 14             	mov    DWORD PTR [eax+0x14],edx
 804da7f:	8b 85 68 ff ff ff    	mov    eax,DWORD PTR [ebp-0x98]
 804da85:	8b 55 e0             	mov    edx,DWORD PTR [ebp-0x20]
 804da88:	89 50 18             	mov    DWORD PTR [eax+0x18],edx
 804da8b:	8b 45 f0             	mov    eax,DWORD PTR [ebp-0x10]
 804da8e:	89 c2                	mov    edx,eax
 804da90:	83 ca 01             	or     edx,0x1
 804da93:	8b 45 f4             	mov    eax,DWORD PTR [ebp-0xc]
 804da96:	89 50 04             	mov    DWORD PTR [eax+0x4],edx
 804da99:	8b 45 f0             	mov    eax,DWORD PTR [ebp-0x10]
 804da9c:	8b 55 f4             	mov    edx,DWORD PTR [ebp-0xc]
 804da9f:	01 c2                	add    edx,eax
 804daa1:	8b 45 f0             	mov    eax,DWORD PTR [ebp-0x10]
 804daa4:	89 02                	mov    DWORD PTR [edx],eax
 804daa6:	a1 94 0b 05 08       	mov    eax,ds:0x8050b94
 804daab:	3b 45 f4             	cmp    eax,DWORD PTR [ebp-0xc]
 804daae:	75 39                	jne    804dae9 <free+0x687>
 804dab0:	8b 45 f0             	mov    eax,DWORD PTR [ebp-0x10]
 804dab3:	a3 88 0b 05 08       	mov    ds:0x8050b88,eax
 804dab8:	e9 44 03 00 00       	jmp    804de01 <free+0x99f>
 804dabd:	8b 45 c4             	mov    eax,DWORD PTR [ebp-0x3c]
 804dac0:	8b 40 04             	mov    eax,DWORD PTR [eax+0x4]
 804dac3:	89 c2                	mov    edx,eax
 804dac5:	83 e2 fe             	and    edx,0xfffffffe
 804dac8:	8b 45 c4             	mov    eax,DWORD PTR [ebp-0x3c]
 804dacb:	89 50 04             	mov    DWORD PTR [eax+0x4],edx
 804dace:	8b 45 f0             	mov    eax,DWORD PTR [ebp-0x10]
 804dad1:	89 c2                	mov    edx,eax
 804dad3:	83 ca 01             	or     edx,0x1
 804dad6:	8b 45 f4             	mov    eax,DWORD PTR [ebp-0xc]
 804dad9:	89 50 04             	mov    DWORD PTR [eax+0x4],edx
 804dadc:	8b 45 f0             	mov    eax,DWORD PTR [ebp-0x10]
 804dadf:	8b 55 f4             	mov    edx,DWORD PTR [ebp-0xc]
 804dae2:	01 c2                	add    edx,eax
 804dae4:	8b 45 f0             	mov    eax,DWORD PTR [ebp-0x10]
 804dae7:	89 02                	mov    DWORD PTR [edx],eax
 804dae9:	8b 45 f0             	mov    eax,DWORD PTR [ebp-0x10]
 804daec:	c1 e8 03             	shr    eax,0x3
 804daef:	83 f8 1f             	cmp    eax,0x1f
 804daf2:	0f 87 ad 00 00 00    	ja     804dba5 <free+0x743>
 804daf8:	8b 45 f0             	mov    eax,DWORD PTR [ebp-0x10]
 804dafb:	c1 e8 03             	shr    eax,0x3
 804dafe:	89 85 64 ff ff ff    	mov    DWORD PTR [ebp-0x9c],eax
 804db04:	8b 85 64 ff ff ff    	mov    eax,DWORD PTR [ebp-0x9c]
 804db0a:	01 c0                	add    eax,eax
 804db0c:	83 c0 08             	add    eax,0x8
 804db0f:	c1 e0 02             	shl    eax,0x2
 804db12:	05 80 0b 05 08       	add    eax,0x8050b80
 804db17:	83 c0 08             	add    eax,0x8
 804db1a:	89 85 60 ff ff ff    	mov    DWORD PTR [ebp-0xa0],eax
 804db20:	8b 85 60 ff ff ff    	mov    eax,DWORD PTR [ebp-0xa0]
 804db26:	89 45 d4             	mov    DWORD PTR [ebp-0x2c],eax
 804db29:	8b 15 80 0b 05 08    	mov    edx,DWORD PTR ds:0x8050b80
 804db2f:	8b 85 64 ff ff ff    	mov    eax,DWORD PTR [ebp-0x9c]
 804db35:	bb 01 00 00 00       	mov    ebx,0x1
 804db3a:	89 de                	mov    esi,ebx
 804db3c:	89 c1                	mov    ecx,eax
 804db3e:	d3 e6                	shl    esi,cl
 804db40:	89 f0                	mov    eax,esi
 804db42:	21 d0                	and    eax,edx
 804db44:	85 c0                	test   eax,eax
 804db46:	75 22                	jne    804db6a <free+0x708>
 804db48:	8b 15 80 0b 05 08    	mov    edx,DWORD PTR ds:0x8050b80
 804db4e:	8b 85 64 ff ff ff    	mov    eax,DWORD PTR [ebp-0x9c]
 804db54:	bb 01 00 00 00       	mov    ebx,0x1
 804db59:	89 de                	mov    esi,ebx
 804db5b:	89 c1                	mov    ecx,eax
 804db5d:	d3 e6                	shl    esi,cl
 804db5f:	89 f0                	mov    eax,esi
 804db61:	09 d0                	or     eax,edx
 804db63:	a3 80 0b 05 08       	mov    ds:0x8050b80,eax
 804db68:	eb 0c                	jmp    804db76 <free+0x714>
 804db6a:	8b 85 60 ff ff ff    	mov    eax,DWORD PTR [ebp-0xa0]
 804db70:	8b 40 08             	mov    eax,DWORD PTR [eax+0x8]
 804db73:	89 45 d4             	mov    DWORD PTR [ebp-0x2c],eax
 804db76:	8b 85 60 ff ff ff    	mov    eax,DWORD PTR [ebp-0xa0]
 804db7c:	8b 55 f4             	mov    edx,DWORD PTR [ebp-0xc]
 804db7f:	89 50 08             	mov    DWORD PTR [eax+0x8],edx
 804db82:	8b 45 d4             	mov    eax,DWORD PTR [ebp-0x2c]
 804db85:	8b 55 f4             	mov    edx,DWORD PTR [ebp-0xc]
 804db88:	89 50 0c             	mov    DWORD PTR [eax+0xc],edx
 804db8b:	8b 45 f4             	mov    eax,DWORD PTR [ebp-0xc]
 804db8e:	8b 55 d4             	mov    edx,DWORD PTR [ebp-0x2c]
 804db91:	89 50 08             	mov    DWORD PTR [eax+0x8],edx
 804db94:	8b 45 f4             	mov    eax,DWORD PTR [ebp-0xc]
 804db97:	8b 95 60 ff ff ff    	mov    edx,DWORD PTR [ebp-0xa0]
 804db9d:	89 50 0c             	mov    DWORD PTR [eax+0xc],edx
 804dba0:	e9 5b 02 00 00       	jmp    804de00 <free+0x99e>
 804dba5:	8b 45 f4             	mov    eax,DWORD PTR [ebp-0xc]
 804dba8:	89 85 5c ff ff ff    	mov    DWORD PTR [ebp-0xa4],eax
 804dbae:	8b 45 f0             	mov    eax,DWORD PTR [ebp-0x10]
 804dbb1:	c1 e8 08             	shr    eax,0x8
 804dbb4:	89 85 58 ff ff ff    	mov    DWORD PTR [ebp-0xa8],eax
 804dbba:	83 bd 58 ff ff ff 00 	cmp    DWORD PTR [ebp-0xa8],0x0
 804dbc1:	75 09                	jne    804dbcc <free+0x76a>
 804dbc3:	c7 45 d0 00 00 00 00 	mov    DWORD PTR [ebp-0x30],0x0
 804dbca:	eb 47                	jmp    804dc13 <free+0x7b1>
 804dbcc:	81 bd 58 ff ff ff ff 	cmp    DWORD PTR [ebp-0xa8],0xffff
 804dbd3:	ff 00 00 
 804dbd6:	76 09                	jbe    804dbe1 <free+0x77f>
 804dbd8:	c7 45 d0 1f 00 00 00 	mov    DWORD PTR [ebp-0x30],0x1f
 804dbdf:	eb 32                	jmp    804dc13 <free+0x7b1>
 804dbe1:	0f bd 9d 58 ff ff ff 	bsr    ebx,DWORD PTR [ebp-0xa8]
 804dbe8:	89 9d 54 ff ff ff    	mov    DWORD PTR [ebp-0xac],ebx
 804dbee:	8b 85 54 ff ff ff    	mov    eax,DWORD PTR [ebp-0xac]
 804dbf4:	8d 1c 00             	lea    ebx,[eax+eax*1]
 804dbf7:	8b 85 54 ff ff ff    	mov    eax,DWORD PTR [ebp-0xac]
 804dbfd:	83 c0 07             	add    eax,0x7
 804dc00:	8b 55 f0             	mov    edx,DWORD PTR [ebp-0x10]
 804dc03:	89 d6                	mov    esi,edx
 804dc05:	89 c1                	mov    ecx,eax
 804dc07:	d3 ee                	shr    esi,cl
 804dc09:	89 f0                	mov    eax,esi
 804dc0b:	83 e0 01             	and    eax,0x1
 804dc0e:	01 d8                	add    eax,ebx
 804dc10:	89 45 d0             	mov    DWORD PTR [ebp-0x30],eax
 804dc13:	8b 45 d0             	mov    eax,DWORD PTR [ebp-0x30]
 804dc16:	83 c0 4c             	add    eax,0x4c
 804dc19:	c1 e0 02             	shl    eax,0x2
 804dc1c:	05 80 0b 05 08       	add    eax,0x8050b80
 804dc21:	89 85 50 ff ff ff    	mov    DWORD PTR [ebp-0xb0],eax
 804dc27:	8b 85 5c ff ff ff    	mov    eax,DWORD PTR [ebp-0xa4]
 804dc2d:	8b 55 d0             	mov    edx,DWORD PTR [ebp-0x30]
 804dc30:	89 50 1c             	mov    DWORD PTR [eax+0x1c],edx
 804dc33:	8b 85 5c ff ff ff    	mov    eax,DWORD PTR [ebp-0xa4]
 804dc39:	c7 40 14 00 00 00 00 	mov    DWORD PTR [eax+0x14],0x0
 804dc40:	8b 85 5c ff ff ff    	mov    eax,DWORD PTR [ebp-0xa4]
 804dc46:	8b 50 14             	mov    edx,DWORD PTR [eax+0x14]
 804dc49:	8b 85 5c ff ff ff    	mov    eax,DWORD PTR [ebp-0xa4]
 804dc4f:	89 50 10             	mov    DWORD PTR [eax+0x10],edx
 804dc52:	8b 15 84 0b 05 08    	mov    edx,DWORD PTR ds:0x8050b84
 804dc58:	8b 45 d0             	mov    eax,DWORD PTR [ebp-0x30]
 804dc5b:	bb 01 00 00 00       	mov    ebx,0x1
 804dc60:	89 de                	mov    esi,ebx
 804dc62:	89 c1                	mov    ecx,eax
 804dc64:	d3 e6                	shl    esi,cl
 804dc66:	89 f0                	mov    eax,esi
 804dc68:	21 d0                	and    eax,edx
 804dc6a:	85 c0                	test   eax,eax
 804dc6c:	75 60                	jne    804dcce <free+0x86c>
 804dc6e:	8b 15 84 0b 05 08    	mov    edx,DWORD PTR ds:0x8050b84
 804dc74:	8b 45 d0             	mov    eax,DWORD PTR [ebp-0x30]
 804dc77:	bb 01 00 00 00       	mov    ebx,0x1
 804dc7c:	89 de                	mov    esi,ebx
 804dc7e:	89 c1                	mov    ecx,eax
 804dc80:	d3 e6                	shl    esi,cl
 804dc82:	89 f0                	mov    eax,esi
 804dc84:	09 d0                	or     eax,edx
 804dc86:	a3 84 0b 05 08       	mov    ds:0x8050b84,eax
 804dc8b:	8b 85 50 ff ff ff    	mov    eax,DWORD PTR [ebp-0xb0]
 804dc91:	8b 95 5c ff ff ff    	mov    edx,DWORD PTR [ebp-0xa4]
 804dc97:	89 10                	mov    DWORD PTR [eax],edx
 804dc99:	8b 85 5c ff ff ff    	mov    eax,DWORD PTR [ebp-0xa4]
 804dc9f:	8b 95 50 ff ff ff    	mov    edx,DWORD PTR [ebp-0xb0]
 804dca5:	89 50 18             	mov    DWORD PTR [eax+0x18],edx
 804dca8:	8b 85 5c ff ff ff    	mov    eax,DWORD PTR [ebp-0xa4]
 804dcae:	8b 95 5c ff ff ff    	mov    edx,DWORD PTR [ebp-0xa4]
 804dcb4:	89 50 0c             	mov    DWORD PTR [eax+0xc],edx
 804dcb7:	8b 85 5c ff ff ff    	mov    eax,DWORD PTR [ebp-0xa4]
 804dcbd:	8b 50 0c             	mov    edx,DWORD PTR [eax+0xc]
 804dcc0:	8b 85 5c ff ff ff    	mov    eax,DWORD PTR [ebp-0xa4]
 804dcc6:	89 50 08             	mov    DWORD PTR [eax+0x8],edx
 804dcc9:	e9 08 01 00 00       	jmp    804ddd6 <free+0x974>
 804dcce:	8b 85 50 ff ff ff    	mov    eax,DWORD PTR [ebp-0xb0]
 804dcd4:	8b 00                	mov    eax,DWORD PTR [eax]
 804dcd6:	89 45 cc             	mov    DWORD PTR [ebp-0x34],eax
 804dcd9:	83 7d d0 1f          	cmp    DWORD PTR [ebp-0x30],0x1f
 804dcdd:	74 10                	je     804dcef <free+0x88d>
 804dcdf:	8b 45 d0             	mov    eax,DWORD PTR [ebp-0x30]
 804dce2:	89 c2                	mov    edx,eax
 804dce4:	d1 ea                	shr    edx,1
 804dce6:	b8 19 00 00 00       	mov    eax,0x19
 804dceb:	29 d0                	sub    eax,edx
 804dced:	eb 05                	jmp    804dcf4 <free+0x892>
 804dcef:	b8 00 00 00 00       	mov    eax,0x0
 804dcf4:	8b 55 f0             	mov    edx,DWORD PTR [ebp-0x10]
 804dcf7:	89 d3                	mov    ebx,edx
 804dcf9:	89 c1                	mov    ecx,eax
 804dcfb:	d3 e3                	shl    ebx,cl
 804dcfd:	89 d8                	mov    eax,ebx
 804dcff:	89 45 c8             	mov    DWORD PTR [ebp-0x38],eax
 804dd02:	8b 45 cc             	mov    eax,DWORD PTR [ebp-0x34]
 804dd05:	8b 40 04             	mov    eax,DWORD PTR [eax+0x4]
 804dd08:	83 e0 f8             	and    eax,0xfffffff8
 804dd0b:	3b 45 f0             	cmp    eax,DWORD PTR [ebp-0x10]
 804dd0e:	74 74                	je     804dd84 <free+0x922>
 804dd10:	8b 45 c8             	mov    eax,DWORD PTR [ebp-0x38]
 804dd13:	c1 e8 1f             	shr    eax,0x1f
 804dd16:	83 c0 04             	add    eax,0x4
 804dd19:	8d 14 85 00 00 00 00 	lea    edx,[eax*4+0x0]
 804dd20:	8b 45 cc             	mov    eax,DWORD PTR [ebp-0x34]
 804dd23:	01 d0                	add    eax,edx
 804dd25:	89 85 4c ff ff ff    	mov    DWORD PTR [ebp-0xb4],eax
 804dd2b:	d1 65 c8             	shl    DWORD PTR [ebp-0x38],1
 804dd2e:	8b 85 4c ff ff ff    	mov    eax,DWORD PTR [ebp-0xb4]
 804dd34:	8b 00                	mov    eax,DWORD PTR [eax]
 804dd36:	85 c0                	test   eax,eax
 804dd38:	74 0d                	je     804dd47 <free+0x8e5>
 804dd3a:	8b 85 4c ff ff ff    	mov    eax,DWORD PTR [ebp-0xb4]
 804dd40:	8b 00                	mov    eax,DWORD PTR [eax]
 804dd42:	89 45 cc             	mov    DWORD PTR [ebp-0x34],eax
 804dd45:	eb bb                	jmp    804dd02 <free+0x8a0>
 804dd47:	8b 85 4c ff ff ff    	mov    eax,DWORD PTR [ebp-0xb4]
 804dd4d:	8b 95 5c ff ff ff    	mov    edx,DWORD PTR [ebp-0xa4]
 804dd53:	89 10                	mov    DWORD PTR [eax],edx
 804dd55:	8b 85 5c ff ff ff    	mov    eax,DWORD PTR [ebp-0xa4]
 804dd5b:	8b 55 cc             	mov    edx,DWORD PTR [ebp-0x34]
 804dd5e:	89 50 18             	mov    DWORD PTR [eax+0x18],edx
 804dd61:	8b 85 5c ff ff ff    	mov    eax,DWORD PTR [ebp-0xa4]
 804dd67:	8b 95 5c ff ff ff    	mov    edx,DWORD PTR [ebp-0xa4]
 804dd6d:	89 50 0c             	mov    DWORD PTR [eax+0xc],edx
 804dd70:	8b 85 5c ff ff ff    	mov    eax,DWORD PTR [ebp-0xa4]
 804dd76:	8b 50 0c             	mov    edx,DWORD PTR [eax+0xc]
 804dd79:	8b 85 5c ff ff ff    	mov    eax,DWORD PTR [ebp-0xa4]
 804dd7f:	89 50 08             	mov    DWORD PTR [eax+0x8],edx
 804dd82:	eb 52                	jmp    804ddd6 <free+0x974>
 804dd84:	8b 45 cc             	mov    eax,DWORD PTR [ebp-0x34]
 804dd87:	8b 40 08             	mov    eax,DWORD PTR [eax+0x8]
 804dd8a:	89 85 48 ff ff ff    	mov    DWORD PTR [ebp-0xb8],eax
 804dd90:	8b 85 48 ff ff ff    	mov    eax,DWORD PTR [ebp-0xb8]
 804dd96:	8b 95 5c ff ff ff    	mov    edx,DWORD PTR [ebp-0xa4]
 804dd9c:	89 50 0c             	mov    DWORD PTR [eax+0xc],edx
 804dd9f:	8b 85 48 ff ff ff    	mov    eax,DWORD PTR [ebp-0xb8]
 804dda5:	8b 50 0c             	mov    edx,DWORD PTR [eax+0xc]
 804dda8:	8b 45 cc             	mov    eax,DWORD PTR [ebp-0x34]
 804ddab:	89 50 08             	mov    DWORD PTR [eax+0x8],edx
 804ddae:	8b 85 5c ff ff ff    	mov    eax,DWORD PTR [ebp-0xa4]
 804ddb4:	8b 95 48 ff ff ff    	mov    edx,DWORD PTR [ebp-0xb8]
 804ddba:	89 50 08             	mov    DWORD PTR [eax+0x8],edx
 804ddbd:	8b 85 5c ff ff ff    	mov    eax,DWORD PTR [ebp-0xa4]
 804ddc3:	8b 55 cc             	mov    edx,DWORD PTR [ebp-0x34]
 804ddc6:	89 50 0c             	mov    DWORD PTR [eax+0xc],edx
 804ddc9:	8b 85 5c ff ff ff    	mov    eax,DWORD PTR [ebp-0xa4]
 804ddcf:	c7 40 18 00 00 00 00 	mov    DWORD PTR [eax+0x18],0x0
 804ddd6:	a1 a0 0b 05 08       	mov    eax,ds:0x8050ba0
 804dddb:	83 e8 01             	sub    eax,0x1
 804ddde:	a3 a0 0b 05 08       	mov    ds:0x8050ba0,eax
 804dde3:	a1 a0 0b 05 08       	mov    eax,ds:0x8050ba0
 804dde8:	85 c0                	test   eax,eax
 804ddea:	75 14                	jne    804de00 <free+0x99e>
 804ddec:	c7 04 24 80 0b 05 08 	mov    DWORD PTR [esp],0x8050b80
 804ddf3:	e8 15 d9 ff ff       	call   804b70d <release_unused_segments>
 804ddf8:	eb 06                	jmp    804de00 <free+0x99e>
 804ddfa:	90                   	nop
 804ddfb:	eb 04                	jmp    804de01 <free+0x99f>
 804ddfd:	90                   	nop
 804ddfe:	eb 01                	jmp    804de01 <free+0x99f>
 804de00:	90                   	nop
 804de01:	81 c4 c0 00 00 00    	add    esp,0xc0
 804de07:	5b                   	pop    ebx
 804de08:	5e                   	pop    esi
 804de09:	5d                   	pop    ebp
 804de0a:	c3                   	ret    

0804de0b <calloc>:
 804de0b:	55                   	push   ebp
 804de0c:	89 e5                	mov    ebp,esp
 804de0e:	83 ec 28             	sub    esp,0x28
 804de11:	c7 45 f4 00 00 00 00 	mov    DWORD PTR [ebp-0xc],0x0
 804de18:	83 7d 08 00          	cmp    DWORD PTR [ebp+0x8],0x0
 804de1c:	74 31                	je     804de4f <calloc+0x44>
 804de1e:	8b 45 08             	mov    eax,DWORD PTR [ebp+0x8]
 804de21:	0f af 45 0c          	imul   eax,DWORD PTR [ebp+0xc]
 804de25:	89 45 f4             	mov    DWORD PTR [ebp-0xc],eax
 804de28:	8b 45 0c             	mov    eax,DWORD PTR [ebp+0xc]
 804de2b:	8b 55 08             	mov    edx,DWORD PTR [ebp+0x8]
 804de2e:	09 d0                	or     eax,edx
 804de30:	66 b8 00 00          	mov    ax,0x0
 804de34:	85 c0                	test   eax,eax
 804de36:	74 17                	je     804de4f <calloc+0x44>
 804de38:	8b 45 f4             	mov    eax,DWORD PTR [ebp-0xc]
 804de3b:	ba 00 00 00 00       	mov    edx,0x0
 804de40:	f7 75 08             	div    DWORD PTR [ebp+0x8]
 804de43:	3b 45 0c             	cmp    eax,DWORD PTR [ebp+0xc]
 804de46:	74 07                	je     804de4f <calloc+0x44>
 804de48:	c7 45 f4 ff ff ff ff 	mov    DWORD PTR [ebp-0xc],0xffffffff
 804de4f:	8b 45 f4             	mov    eax,DWORD PTR [ebp-0xc]
 804de52:	89 04 24             	mov    DWORD PTR [esp],eax
 804de55:	e8 55 f1 ff ff       	call   804cfaf <malloc>
 804de5a:	89 45 f0             	mov    DWORD PTR [ebp-0x10],eax
 804de5d:	83 7d f0 00          	cmp    DWORD PTR [ebp-0x10],0x0
 804de61:	74 2a                	je     804de8d <calloc+0x82>
 804de63:	8b 45 f0             	mov    eax,DWORD PTR [ebp-0x10]
 804de66:	83 e8 08             	sub    eax,0x8
 804de69:	8b 40 04             	mov    eax,DWORD PTR [eax+0x4]
 804de6c:	83 e0 03             	and    eax,0x3
 804de6f:	85 c0                	test   eax,eax
 804de71:	74 1a                	je     804de8d <calloc+0x82>
 804de73:	8b 45 f4             	mov    eax,DWORD PTR [ebp-0xc]
 804de76:	89 44 24 08          	mov    DWORD PTR [esp+0x8],eax
 804de7a:	c7 44 24 04 00 00 00 	mov    DWORD PTR [esp+0x4],0x0
 804de81:	00 
 804de82:	8b 45 f0             	mov    eax,DWORD PTR [ebp-0x10]
 804de85:	89 04 24             	mov    DWORD PTR [esp],eax
 804de88:	e8 13 ac ff ff       	call   8048aa0 <memset@plt>
 804de8d:	8b 45 f0             	mov    eax,DWORD PTR [ebp-0x10]
 804de90:	c9                   	leave  
 804de91:	c3                   	ret    

0804de92 <realloc>:
 804de92:	55                   	push   ebp
 804de93:	89 e5                	mov    ebp,esp
 804de95:	83 ec 28             	sub    esp,0x28
 804de98:	83 7d 08 00          	cmp    DWORD PTR [ebp+0x8],0x0
 804de9c:	75 0d                	jne    804deab <realloc+0x19>
 804de9e:	8b 45 0c             	mov    eax,DWORD PTR [ebp+0xc]
 804dea1:	89 04 24             	mov    DWORD PTR [esp],eax
 804dea4:	e8 06 f1 ff ff       	call   804cfaf <malloc>
 804dea9:	eb 20                	jmp    804decb <realloc+0x39>
 804deab:	c7 45 f4 80 0b 05 08 	mov    DWORD PTR [ebp-0xc],0x8050b80
 804deb2:	8b 45 0c             	mov    eax,DWORD PTR [ebp+0xc]
 804deb5:	89 44 24 08          	mov    DWORD PTR [esp+0x8],eax
 804deb9:	8b 45 08             	mov    eax,DWORD PTR [ebp+0x8]
 804debc:	89 44 24 04          	mov    DWORD PTR [esp+0x4],eax
 804dec0:	8b 45 f4             	mov    eax,DWORD PTR [ebp-0xc]
 804dec3:	89 04 24             	mov    DWORD PTR [esp],eax
 804dec6:	e8 37 e9 ff ff       	call   804c802 <internal_realloc>
 804decb:	c9                   	leave  
 804decc:	c3                   	ret    

0804decd <memalign>:
 804decd:	55                   	push   ebp
 804dece:	89 e5                	mov    ebp,esp
 804ded0:	83 ec 18             	sub    esp,0x18
 804ded3:	8b 45 0c             	mov    eax,DWORD PTR [ebp+0xc]
 804ded6:	89 44 24 08          	mov    DWORD PTR [esp+0x8],eax
 804deda:	8b 45 08             	mov    eax,DWORD PTR [ebp+0x8]
 804dedd:	89 44 24 04          	mov    DWORD PTR [esp+0x4],eax
 804dee1:	c7 04 24 80 0b 05 08 	mov    DWORD PTR [esp],0x8050b80
 804dee8:	e8 6d eb ff ff       	call   804ca5a <internal_memalign>
 804deed:	c9                   	leave  
 804deee:	c3                   	ret    

0804deef <independent_calloc>:
 804deef:	55                   	push   ebp
 804def0:	89 e5                	mov    ebp,esp
 804def2:	83 ec 38             	sub    esp,0x38
 804def5:	8b 45 0c             	mov    eax,DWORD PTR [ebp+0xc]
 804def8:	89 45 f4             	mov    DWORD PTR [ebp-0xc],eax
 804defb:	8b 45 10             	mov    eax,DWORD PTR [ebp+0x10]
 804defe:	89 44 24 10          	mov    DWORD PTR [esp+0x10],eax
 804df02:	c7 44 24 0c 03 00 00 	mov    DWORD PTR [esp+0xc],0x3
 804df09:	00 
 804df0a:	8d 45 f4             	lea    eax,[ebp-0xc]
 804df0d:	89 44 24 08          	mov    DWORD PTR [esp+0x8],eax
 804df11:	8b 45 08             	mov    eax,DWORD PTR [ebp+0x8]
 804df14:	89 44 24 04          	mov    DWORD PTR [esp+0x4],eax
 804df18:	c7 04 24 80 0b 05 08 	mov    DWORD PTR [esp],0x8050b80
 804df1f:	e8 eb ed ff ff       	call   804cd0f <ialloc>
 804df24:	c9                   	leave  
 804df25:	c3                   	ret    

0804df26 <independent_comalloc>:
 804df26:	55                   	push   ebp
 804df27:	89 e5                	mov    ebp,esp
 804df29:	83 ec 28             	sub    esp,0x28
 804df2c:	8b 45 10             	mov    eax,DWORD PTR [ebp+0x10]
 804df2f:	89 44 24 10          	mov    DWORD PTR [esp+0x10],eax
 804df33:	c7 44 24 0c 00 00 00 	mov    DWORD PTR [esp+0xc],0x0
 804df3a:	00 
 804df3b:	8b 45 0c             	mov    eax,DWORD PTR [ebp+0xc]
 804df3e:	89 44 24 08          	mov    DWORD PTR [esp+0x8],eax
 804df42:	8b 45 08             	mov    eax,DWORD PTR [ebp+0x8]
 804df45:	89 44 24 04          	mov    DWORD PTR [esp+0x4],eax
 804df49:	c7 04 24 80 0b 05 08 	mov    DWORD PTR [esp],0x8050b80
 804df50:	e8 ba ed ff ff       	call   804cd0f <ialloc>
 804df55:	c9                   	leave  
 804df56:	c3                   	ret    

0804df57 <valloc>:
 804df57:	55                   	push   ebp
 804df58:	89 e5                	mov    ebp,esp
 804df5a:	83 ec 28             	sub    esp,0x28
 804df5d:	a1 60 0b 05 08       	mov    eax,ds:0x8050b60
 804df62:	85 c0                	test   eax,eax
 804df64:	75 07                	jne    804df6d <valloc+0x16>
 804df66:	e8 71 bf ff ff       	call   8049edc <init_mparams>
 804df6b:	85 c0                	test   eax,eax
 804df6d:	a1 64 0b 05 08       	mov    eax,ds:0x8050b64
 804df72:	89 45 f4             	mov    DWORD PTR [ebp-0xc],eax
 804df75:	8b 45 08             	mov    eax,DWORD PTR [ebp+0x8]
 804df78:	89 44 24 04          	mov    DWORD PTR [esp+0x4],eax
 804df7c:	8b 45 f4             	mov    eax,DWORD PTR [ebp-0xc]
 804df7f:	89 04 24             	mov    DWORD PTR [esp],eax
 804df82:	e8 46 ff ff ff       	call   804decd <memalign>
 804df87:	c9                   	leave  
 804df88:	c3                   	ret    

0804df89 <pvalloc>:
 804df89:	55                   	push   ebp
 804df8a:	89 e5                	mov    ebp,esp
 804df8c:	83 ec 28             	sub    esp,0x28
 804df8f:	a1 60 0b 05 08       	mov    eax,ds:0x8050b60
 804df94:	85 c0                	test   eax,eax
 804df96:	75 07                	jne    804df9f <pvalloc+0x16>
 804df98:	e8 3f bf ff ff       	call   8049edc <init_mparams>
 804df9d:	85 c0                	test   eax,eax
 804df9f:	a1 64 0b 05 08       	mov    eax,ds:0x8050b64
 804dfa4:	89 45 f4             	mov    DWORD PTR [ebp-0xc],eax
 804dfa7:	8b 45 f4             	mov    eax,DWORD PTR [ebp-0xc]
 804dfaa:	8b 55 08             	mov    edx,DWORD PTR [ebp+0x8]
 804dfad:	01 d0                	add    eax,edx
 804dfaf:	8d 50 ff             	lea    edx,[eax-0x1]
 804dfb2:	8b 45 f4             	mov    eax,DWORD PTR [ebp-0xc]
 804dfb5:	f7 d8                	neg    eax
 804dfb7:	21 d0                	and    eax,edx
 804dfb9:	89 44 24 04          	mov    DWORD PTR [esp+0x4],eax
 804dfbd:	8b 45 f4             	mov    eax,DWORD PTR [ebp-0xc]
 804dfc0:	89 04 24             	mov    DWORD PTR [esp],eax
 804dfc3:	e8 05 ff ff ff       	call   804decd <memalign>
 804dfc8:	c9                   	leave  
 804dfc9:	c3                   	ret    

0804dfca <malloc_trim>:
 804dfca:	55                   	push   ebp
 804dfcb:	89 e5                	mov    ebp,esp
 804dfcd:	83 ec 28             	sub    esp,0x28
 804dfd0:	c7 45 f4 00 00 00 00 	mov    DWORD PTR [ebp-0xc],0x0
 804dfd7:	a1 60 0b 05 08       	mov    eax,ds:0x8050b60
 804dfdc:	85 c0                	test   eax,eax
 804dfde:	75 07                	jne    804dfe7 <malloc_trim+0x1d>
 804dfe0:	e8 f7 be ff ff       	call   8049edc <init_mparams>
 804dfe5:	85 c0                	test   eax,eax
 804dfe7:	8b 45 08             	mov    eax,DWORD PTR [ebp+0x8]
 804dfea:	89 44 24 04          	mov    DWORD PTR [esp+0x4],eax
 804dfee:	c7 04 24 80 0b 05 08 	mov    DWORD PTR [esp],0x8050b80
 804dff5:	e8 b9 db ff ff       	call   804bbb3 <sys_trim>
 804dffa:	89 45 f4             	mov    DWORD PTR [ebp-0xc],eax
 804dffd:	8b 45 f4             	mov    eax,DWORD PTR [ebp-0xc]
 804e000:	c9                   	leave  
 804e001:	c3                   	ret    

0804e002 <malloc_footprint>:
 804e002:	55                   	push   ebp
 804e003:	89 e5                	mov    ebp,esp
 804e005:	a1 30 0d 05 08       	mov    eax,ds:0x8050d30
 804e00a:	5d                   	pop    ebp
 804e00b:	c3                   	ret    

0804e00c <malloc_max_footprint>:
 804e00c:	55                   	push   ebp
 804e00d:	89 e5                	mov    ebp,esp
 804e00f:	a1 34 0d 05 08       	mov    eax,ds:0x8050d34
 804e014:	5d                   	pop    ebp
 804e015:	c3                   	ret    

0804e016 <mallinfo>:
 804e016:	55                   	push   ebp
 804e017:	89 e5                	mov    ebp,esp
 804e019:	83 ec 18             	sub    esp,0x18
 804e01c:	8b 45 08             	mov    eax,DWORD PTR [ebp+0x8]
 804e01f:	c7 44 24 04 80 0b 05 	mov    DWORD PTR [esp+0x4],0x8050b80
 804e026:	08 
 804e027:	89 04 24             	mov    DWORD PTR [esp],eax
 804e02a:	e8 e6 bf ff ff       	call   804a015 <internal_mallinfo>
 804e02f:	83 ec 04             	sub    esp,0x4
 804e032:	8b 45 08             	mov    eax,DWORD PTR [ebp+0x8]
 804e035:	c9                   	leave  
 804e036:	c2 04 00             	ret    0x4

0804e039 <malloc_stats>:
 804e039:	55                   	push   ebp
 804e03a:	89 e5                	mov    ebp,esp
 804e03c:	83 ec 18             	sub    esp,0x18
 804e03f:	c7 04 24 80 0b 05 08 	mov    DWORD PTR [esp],0x8050b80
 804e046:	e8 65 c1 ff ff       	call   804a1b0 <internal_malloc_stats>
 804e04b:	c9                   	leave  
 804e04c:	c3                   	ret    

0804e04d <mallopt>:
 804e04d:	55                   	push   ebp
 804e04e:	89 e5                	mov    ebp,esp
 804e050:	83 ec 18             	sub    esp,0x18
 804e053:	8b 45 0c             	mov    eax,DWORD PTR [ebp+0xc]
 804e056:	89 44 24 04          	mov    DWORD PTR [esp+0x4],eax
 804e05a:	8b 45 08             	mov    eax,DWORD PTR [ebp+0x8]
 804e05d:	89 04 24             	mov    DWORD PTR [esp],eax
 804e060:	e8 21 bf ff ff       	call   8049f86 <change_mparam>
 804e065:	c9                   	leave  
 804e066:	c3                   	ret    

0804e067 <malloc_usable_size>:
 804e067:	55                   	push   ebp
 804e068:	89 e5                	mov    ebp,esp
 804e06a:	83 ec 10             	sub    esp,0x10
 804e06d:	83 7d 08 00          	cmp    DWORD PTR [ebp+0x8],0x0
 804e071:	74 43                	je     804e0b6 <malloc_usable_size+0x4f>
 804e073:	8b 45 08             	mov    eax,DWORD PTR [ebp+0x8]
 804e076:	83 e8 08             	sub    eax,0x8
 804e079:	89 45 fc             	mov    DWORD PTR [ebp-0x4],eax
 804e07c:	8b 45 fc             	mov    eax,DWORD PTR [ebp-0x4]
 804e07f:	8b 40 04             	mov    eax,DWORD PTR [eax+0x4]
 804e082:	83 e0 03             	and    eax,0x3
 804e085:	83 f8 01             	cmp    eax,0x1
 804e088:	74 2c                	je     804e0b6 <malloc_usable_size+0x4f>
 804e08a:	8b 45 fc             	mov    eax,DWORD PTR [ebp-0x4]
 804e08d:	8b 40 04             	mov    eax,DWORD PTR [eax+0x4]
 804e090:	89 c2                	mov    edx,eax
 804e092:	83 e2 f8             	and    edx,0xfffffff8
 804e095:	8b 45 fc             	mov    eax,DWORD PTR [ebp-0x4]
 804e098:	8b 40 04             	mov    eax,DWORD PTR [eax+0x4]
 804e09b:	83 e0 03             	and    eax,0x3
 804e09e:	85 c0                	test   eax,eax
 804e0a0:	75 07                	jne    804e0a9 <malloc_usable_size+0x42>
 804e0a2:	b8 08 00 00 00       	mov    eax,0x8
 804e0a7:	eb 05                	jmp    804e0ae <malloc_usable_size+0x47>
 804e0a9:	b8 04 00 00 00       	mov    eax,0x4
 804e0ae:	89 d1                	mov    ecx,edx
 804e0b0:	29 c1                	sub    ecx,eax
 804e0b2:	89 c8                	mov    eax,ecx
 804e0b4:	eb 05                	jmp    804e0bb <malloc_usable_size+0x54>
 804e0b6:	b8 00 00 00 00       	mov    eax,0x0
 804e0bb:	c9                   	leave  
 804e0bc:	c3                   	ret    
 804e0bd:	90                   	nop
 804e0be:	90                   	nop
 804e0bf:	90                   	nop

0804e0c0 <__libc_csu_fini>:
 804e0c0:	55                   	push   ebp
 804e0c1:	89 e5                	mov    ebp,esp
 804e0c3:	5d                   	pop    ebp
 804e0c4:	c3                   	ret    
 804e0c5:	8d 74 26 00          	lea    esi,[esi+eiz*1+0x0]
 804e0c9:	8d bc 27 00 00 00 00 	lea    edi,[edi+eiz*1+0x0]

0804e0d0 <__libc_csu_init>:
 804e0d0:	55                   	push   ebp
 804e0d1:	89 e5                	mov    ebp,esp
 804e0d3:	57                   	push   edi
 804e0d4:	56                   	push   esi
 804e0d5:	53                   	push   ebx
 804e0d6:	e8 4f 00 00 00       	call   804e12a <__i686.get_pc_thunk.bx>
 804e0db:	81 c3 bd 29 00 00    	add    ebx,0x29bd
 804e0e1:	83 ec 1c             	sub    esp,0x1c
 804e0e4:	e8 33 a8 ff ff       	call   804891c <_init>
 804e0e9:	8d bb 04 ff ff ff    	lea    edi,[ebx-0xfc]
 804e0ef:	8d 83 00 ff ff ff    	lea    eax,[ebx-0x100]
 804e0f5:	29 c7                	sub    edi,eax
 804e0f7:	c1 ff 02             	sar    edi,0x2
 804e0fa:	85 ff                	test   edi,edi
 804e0fc:	74 24                	je     804e122 <__libc_csu_init+0x52>
 804e0fe:	31 f6                	xor    esi,esi
 804e100:	8b 45 10             	mov    eax,DWORD PTR [ebp+0x10]
 804e103:	89 44 24 08          	mov    DWORD PTR [esp+0x8],eax
 804e107:	8b 45 0c             	mov    eax,DWORD PTR [ebp+0xc]
 804e10a:	89 44 24 04          	mov    DWORD PTR [esp+0x4],eax
 804e10e:	8b 45 08             	mov    eax,DWORD PTR [ebp+0x8]
 804e111:	89 04 24             	mov    DWORD PTR [esp],eax
 804e114:	ff 94 b3 00 ff ff ff 	call   DWORD PTR [ebx+esi*4-0x100]
 804e11b:	83 c6 01             	add    esi,0x1
 804e11e:	39 fe                	cmp    esi,edi
 804e120:	72 de                	jb     804e100 <__libc_csu_init+0x30>
 804e122:	83 c4 1c             	add    esp,0x1c
 804e125:	5b                   	pop    ebx
 804e126:	5e                   	pop    esi
 804e127:	5f                   	pop    edi
 804e128:	5d                   	pop    ebp
 804e129:	c3                   	ret    

0804e12a <__i686.get_pc_thunk.bx>:
 804e12a:	8b 1c 24             	mov    ebx,DWORD PTR [esp]
 804e12d:	c3                   	ret    
 804e12e:	90                   	nop
 804e12f:	90                   	nop

Disassembly of section .fini:

0804e130 <_fini>:
 804e130:	55                   	push   ebp
 804e131:	89 e5                	mov    ebp,esp
 804e133:	53                   	push   ebx
 804e134:	83 ec 04             	sub    esp,0x4
 804e137:	e8 00 00 00 00       	call   804e13c <_fini+0xc>
 804e13c:	5b                   	pop    ebx
 804e13d:	81 c3 5c 29 00 00    	add    ebx,0x295c
 804e143:	59                   	pop    ecx
 804e144:	5b                   	pop    ebx
 804e145:	c9                   	leave  
 804e146:	c3                   	ret    
